(dp1
S'pattern:*.jpg'
p2
V[["environment", {}]]
p3
sS'doc:js/lib/backbone-1.min.js'
p4
V[["environment", {}]]
p5
sS'bundle:content'
p6
V[["environment", {}]]
p7
sS'doc:js/lib/all-site.min.js'
p8
V[["environment", {}]]
p9
sS'doc:index.md|yamlargs|jinja|pandoc|h'
p10
V[["environment", {}]]
p11
sS'doc:js/lib/require.min.js'
p12
V[["environment", {}]]
p13
sS'doc:sass/partials/_gridset.scss'
p14
V[["environment", {}]]
p15
sS'doc:subfolder/index.md|yamlargs|jinja|pandoc|h'
p16
V[["environment", {}]]
p17
sS'doc:sass/print.scss'
p18
V[["environment", {}]]
p19
sS'doc:sass/partials/_globalmasthead.scss'
p20
V[["environment", {}]]
p21
sS'doc:css/venue.min.css'
p22
V[["environment", {}]]
p23
sS'doc:js/src/respond.js'
p24
V[["environment", {}]]
p25
sS'doc:js/lib/backbone-1.1.2.min.js'
p26
V[["environment", {}]]
p27
sS'doc:js/src/all-site/googleAnalytics.js'
p28
V[["environment", {}]]
p29
sS'doc:sass/screen.scss'
p30
V[["environment", {}]]
p31
sS'doc:images/cells.jpg'
p32
V[["environment", {}]]
p33
sS'doc:images/mob-nav.png'
p34
V[["environment", {}]]
p35
sS'doc:js/src/modernizr.js'
p36
V[["environment", {}]]
p37
sS'doc:sass/jdibrief.scss'
p38
V[["environment", {}]]
p39
sS'doc:js/lib/underscore-1.min.js'
p40
V[["environment", {}]]
p41
sS'doc:js/lib/underscore-1.6.0.min.js'
p42
V[["environment", {}]]
p43
sS'doc:js/lib/respond.min.js'
p44
V[["environment", {}]]
p45
sS'doc:sass/daylab.scss'
p46
V[["environment", {}]]
p47
sS'doc:images/respond.proxy.gif'
p48
V[["environment", {}]]
p49
sS'doc:js/lib/modernizr.min.js'
p50
V[["environment", {}]]
p51
sS'pattern:*.ico'
p52
V[["environment", {}]]
p53
sS'doc:js/lib/fastclick.min.js'
p54
V[["environment", {}]]
p55
sS'bundle:assets'
p56
V[["environment", {}]]
p57
sS'doc:js/ResponsiveSlides.js'
p58
V[["environment", {}]]
p59
sS'pattern:*.css'
p60
V[["environment", {}]]
p61
sS'doc:js/lib/jquery-2.1.1.min.js'
p62
V[["environment", {}]]
p63
sS'doc:css/yoursite.css'
p64
V[["environment", {}]]
p65
sS'doc:sass/partials/_reset.scss'
p66
V[["environment", {}]]
p67
sS'doc:js/lib/html5shiv-printshiv.min.js'
p68
V[["environment", {}]]
p69
sS'doc:js/lib/jquery-1.7.1.min.js'
p70
V[["environment", {}]]
p71
sS'doc:sass/partials/_elements.scss'
p72
V[["environment", {}]]
p73
sS'doc:sass/partials/_forms.scss'
p74
V[["environment", {}]]
p75
sS'doc:images/ucl-logo.png'
p76
V[["environment", {}]]
p77
sS'doc:js/src/backbone-1.1.2.js'
p78
V[["environment", {}]]
p79
sS'doc:favicon-152.png'
p80
V[["environment", {}]]
p81
sS'pattern:*.js'
p82
V[["environment", {}]]
p83
sS'doc:css/screen.min.css'
p84
V[["environment", {}]]
p85
sS'pattern:*.md|yamlargs|jinja|pandoc|h'
p86
V[["environment", {}]]
p87
sS'doc:js/app/general.js'
p88
V[["environment", {}]]
p89
sS'doc:css/daylab.min.css'
p90
V[["environment", {}]]
p91
sS'doc:js/lib/respond.proxy.min.js'
p92
V[["environment", {}]]
p93
sS'doc:sass/partials/_carousel.scss'
p94
V[["environment", {}]]
p95
sS'doc:js/src/require.js'
p96
V[["environment", {}]]
p97
sS'doc:js/lib/modernizr-custom.js'
p98
V[["environment", {}]]
p99
sS'doc:_README.md|yamlargs|jinja|pandoc|h'
p100
V[["environment", {}]]
p101
sS'doc:images/close.png'
p102
V[["environment", {}]]
p103
sS'doc:js/main.js'
p104
V[["environment", {}]]
p105
sS'doc:js/src/gridset-overlay.js'
p106
V[["environment", {}]]
p107
sS'doc:sass/venue.scss'
p108
V[["environment", {}]]
p109
sS'doc:css/print.min.css'
p110
V[["environment", {}]]
p111
sS'doc:sass/partials/_typography.scss'
p112
V[["environment", {}]]
p113
sS'doc:js/lib/gridset-overlay.min.js'
p114
V[["environment", {}]]
p115
sS'doc:js/src/all-site/ucl.js'
p116
V[["environment", {}]]
p117
sS'doc:sass/partials/_blog.scss'
p118
V[["environment", {}]]
p119
sS'doc:favicon.ico'
p120
V[["environment", {}]]
p121
sS'doc:sass/ie.scss'
p122
V[["environment", {}]]
p123
sS'doc:sass/designlang.scss'
p124
V[["environment", {}]]
p125
sS'doc:images/ucl-portico.jpg'
p126
V[["environment", {}]]
p127
sS'pattern:*.png'
p128
V[["environment", {}]]
p129
sS'doc:js/src/fastclick.js'
p130
V[["environment", {}]]
p131
sS'doc:js/src/jquery-2.1.1.js'
p132
V[["environment", {}]]
p133
sS'pattern:*.svg'
p134
V[["environment", {}]]
p135
sS'doc:js/src/html5shiv-printshiv.js'
p136
V[["environment", {}]]
p137
sS'doc:js/src/underscore-1.6.0.js'
p138
V[["environment", {}]]
p139
sS'doc:images/favicon.ico'
p140
V[["environment", {}]]
p141
sS'doc:js/src/respond.proxy.js'
p142
V[["environment", {}]]
p143
sS'doc:css/designlang.min.css'
p144
V[["environment", {}]]
p145
sS'doc:css/jdibrief.min.css'
p146
V[["environment", {}]]
p147
sS'doc:sass/partials/_colors.scss'
p148
V[["environment", {}]]
p149
sS'doc:images/ucl-logo.svg'
p150
V[["environment", {}]]
p151
sS'doc:css/ie.min.css'
p152
V[["environment", {}]]
p153
sS'doc:favicon-144.png'
p154
V[["environment", {}]]
p155
sS'doc:sass/partials/_search.scss'
p156
V[["environment", {}]]
p157
sS'doc:js/src/all-site/gridset-overlay.js'
p158
V[["environment", {}]]
p159
sS'pattern:*.gif'
p160
V[["environment", {}]]
p161
sS'doc:sass/mixins/_media-query.scss'
p162
V[["environment", {}]]
p163
sS'pattern:*.scss'
p164
V[["environment", {}]]
p165
sS'doc:js/src/all-site.js'
p166
V[["environment", {}]]
p167
sS'doc:sass/partials/_layout.scss'
p168
V[["environment", {}]]
p169
s.