(dp1
S'docs'
p2
(dp3
S'doc:js/lib/backbone-1.min.js'
p4
(dp5
S'filters-data'
p6
(lp7
sS'output-data'
p8
(S'generic'
p9
S'js/lib/backbone-1.min.js'
p10
S'.js'
p11
S'2f82adeb389a47aadf34bc39d7882230-000'
p12
(dp13
S'help'
p14
S'Data type representing generic binary or text-based data in a single blob.'
p15
sS'title'
p16
NsS'storage-type'
p17
g9
sS'shortcut'
p18
NsS'canonical-name'
p19
g10
sS'canonical-output'
p20
I01
sS'output-name'
p21
NsS'aliases'
p22
(lp23
g9
astp24
sg16
S'Backbone 1.Min'
p25
sS'finish_time'
p26
I0
sS'start_time'
p27
I0
sS'input-data'
p28
(g9
g10
g11
g12
(dp29
g14
g15
sg16
Nsg17
g9
sg18
Nsg19
g10
sg20
I01
sg21
Nsg22
g23
stp30
sS'state'
p31
S'cached'
p32
sS'elapsed'
p33
I0
ssS'doc:subfolder/index.md|yamlargs|jinja|pandoc|h'
p34
(dp35
g6
(lp36
(S'generic'
p37
S'subfolder/index.md|yamlargs'
p38
S'.md'
p39
S'ce0fc7d33801e3bb4f1d5e8a7b5552b5-001-yamlargs'
p40
(dp41
g14
g15
sg16
S'Another page'
p42
sg17
g9
sg18
Nsg20
NsS'crumbs'
p43
(dp44
S'content'
p45
(lp46
(dp47
S'text'
p48
S'RITS'
p49
sS'link'
p50
S'research-it-services'
p51
sa(dp52
S'text'
p53
S'RITS'
p54
sS'link'
p55
S'research-it-services'
p56
sassg19
S'subfolder/index.md'
p57
sg21
Nsg22
g23
sS'findfast'
p58
(dp59
S'links'
p60
(lp61
(dp62
S'text'
p63
S'training 2'
p64
sS'link'
p65
S'http://development.rc.ucl.ac.uk/training'
p66
sasS'title'
p67
S'Quick Links in page'
p68
sstp69
a(g37
S'subfolder/index.md|yamlargs|jinja'
p70
g39
S'ce0fc7d33801e3bb4f1d5e8a7b5552b5-002-yamlargs-jinja'
p71
(dp72
g14
g15
sg16
g42
sg17
g9
sg18
Nsg20
I01
sg43
g44
sg19
S'subfolder/index.md'
p73
sg21
Nsg22
g23
sg58
g59
stp74
a(g37
S'subfolder/index.md|yamlargs|jinja|pandoc'
p75
S'.html'
p76
S'ce0fc7d33801e3bb4f1d5e8a7b5552b5-003-yamlargs-jinja-pandoc'
p77
(dp78
g14
g15
sg16
g42
sg17
g9
sg18
Nsg20
I01
sg43
g44
sg19
S'subfolder/index.html'
p79
sg21
Nsg22
g23
sg58
g59
stp80
a(g37
S'subfolder/index.md|yamlargs|jinja|pandoc|h'
p81
S'.html'
p82
S'ce0fc7d33801e3bb4f1d5e8a7b5552b5-004-yamlargs-jinja-pandoc-h'
p83
(dp84
g14
g15
sg16
g42
sg17
g9
sg18
Nsg20
I01
sg43
g44
sg19
S'subfolder/index.html'
p85
sg21
Nsg22
g23
sg58
g59
stp86
asg8
(g37
g81
g82
g83
(dp87
g14
g15
sg16
g42
sg17
g9
sg18
Nsg20
I01
sg43
g44
sg19
g85
sg21
Nsg22
g23
sg58
g59
stp88
sg16
g42
sg26
F1407946789.871465
sg27
F1407946789.6962371
sg28
(g9
S'subfolder/index.md'
p89
g39
S'ce0fc7d33801e3bb4f1d5e8a7b5552b5-000'
p90
(dp91
g14
g15
sg16
g42
sg17
g9
sg18
Nsg20
Nsg43
g44
sg19
g89
sg21
Nsg22
g23
sg58
g59
stp92
sg31
S'running'
p93
sg33
F0.17522788047790527
ssS'doc:sass/partials/_typography.scss'
p94
(dp95
g6
(lp96
sg8
(g9
S'sass/partials/_typography.scss'
p97
S'.scss'
p98
S'8f29bf1462510d2fea429785ee154e88-000'
p99
(dp100
g14
g15
sg16
Nsg17
g9
sg18
Nsg19
g97
sg20
I01
sg21
Nsg22
g23
stp101
sg16
S' Typography'
p102
sg26
I0
sg27
I0
sg28
(g9
g97
g98
g99
(dp103
g14
g15
sg16
Nsg17
g9
sg18
Nsg19
g97
sg20
I01
sg21
Nsg22
g23
stp104
sg31
g32
sg33
I0
ssS'doc:index.md|yamlargs|jinja|pandoc|h'
p105
(dp106
g6
(lp107
(g37
S'index.md|yamlargs'
p108
S'.md'
p109
S'475d59cfe941211e1c3dcb17c3b74b97-001-yamlargs'
p110
(dp111
g14
g15
sg16
S'An Example Page'
p112
sg17
g9
sg18
Nsg20
NsS'crumbs'
p113
(dp114
S'content'
p115
(lp116
(dp117
S'text'
p118
S'RITS'
p119
sS'link'
p120
S'research-it-services'
p121
sassg19
S'index.md'
p122
sg21
Nsg22
g23
sS'findfast'
p123
(dp124
S'links'
p125
(lp126
(dp127
S'text'
p128
S'training 2'
p129
sS'link'
p130
S'http://development.rc.ucl.ac.uk/training'
p131
sasS'title'
p132
S'Quick Links in page'
p133
sstp134
a(g37
S'index.md|yamlargs|jinja'
p135
g109
S'475d59cfe941211e1c3dcb17c3b74b97-002-yamlargs-jinja'
p136
(dp137
g14
g15
sg16
g112
sg17
g9
sg18
Nsg20
I01
sg113
g114
sg19
S'index.md'
p138
sg21
Nsg22
g23
sg123
g124
stp139
a(g37
S'index.md|yamlargs|jinja|pandoc'
p140
g76
S'475d59cfe941211e1c3dcb17c3b74b97-003-yamlargs-jinja-pandoc'
p141
(dp142
g14
g15
sg16
g112
sg17
g9
sg18
Nsg20
I01
sg113
g114
sg19
S'index.html'
p143
sg21
Nsg22
g23
sg123
g124
stp144
a(g37
S'index.md|yamlargs|jinja|pandoc|h'
p145
g82
S'475d59cfe941211e1c3dcb17c3b74b97-004-yamlargs-jinja-pandoc-h'
p146
(dp147
g14
g15
sg16
g112
sg17
g9
sg18
Nsg20
I01
sg113
g114
sg19
S'index.html'
p148
sg21
Nsg22
g23
sg123
g124
stp149
asg8
(g37
g145
g82
g146
(dp150
g14
g15
sg16
g112
sg17
g9
sg18
Nsg20
I01
sg113
g114
sg19
g148
sg21
Nsg22
g23
sg123
g124
stp151
sg16
g112
sg26
F1407946789.9814711
sg27
F1407946789.872292
sg28
(g9
S'index.md'
p152
g109
S'475d59cfe941211e1c3dcb17c3b74b97-000'
p153
(dp154
g14
g15
sg16
g112
sg17
g9
sg18
Nsg20
Nsg113
g114
sg19
g152
sg21
Nsg22
g23
sg123
g124
stp155
sg31
g93
sg33
F0.10917901992797852
ssS'doc:js/lib/require.min.js'
p156
(dp157
g6
(lp158
sg8
(g9
S'js/lib/require.min.js'
p159
S'.js'
p160
S'49d2d0adf94bd0cf0e3b72afbb9e5248-000'
p161
(dp162
g14
g15
sg16
Nsg17
g9
sg18
Nsg19
g159
sg20
I01
sg21
Nsg22
g23
stp163
sg16
S'Require.Min'
p164
sg26
I0
sg27
I0
sg28
(g9
g159
g160
g161
(dp165
g14
g15
sg16
Nsg17
g9
sg18
Nsg19
g159
sg20
I01
sg21
Nsg22
g23
stp166
sg31
g32
sg33
I0
ssS'doc:sass/partials/_gridset.scss'
p167
(dp168
g6
(lp169
sg8
(g9
S'sass/partials/_gridset.scss'
p170
S'.scss'
p171
S'5d346a500ae0e8d04acb31cd30a186e5-000'
p172
(dp173
g14
g15
sg16
Nsg17
g9
sg18
Nsg19
g170
sg20
I01
sg21
Nsg22
g23
stp174
sg16
S' Gridset'
p175
sg26
I0
sg27
I0
sg28
(g9
g170
g171
g172
(dp176
g14
g15
sg16
Nsg17
g9
sg18
Nsg19
g170
sg20
I01
sg21
Nsg22
g23
stp177
sg31
g32
sg33
I0
ssS'doc:js/lib/jquery-1.7.1.min.js'
p178
(dp179
g6
(lp180
sg8
(g9
S'js/lib/jquery-1.7.1.min.js'
p181
S'.js'
p182
S'47ecd1de1b1a0023d779aaf6ca60827e-000'
p183
(dp184
g14
g15
sg16
Nsg17
g9
sg18
Nsg19
g181
sg20
I01
sg21
Nsg22
g23
stp185
sg16
S'Jquery 1.7.1.Min'
p186
sg26
I0
sg27
I0
sg28
(g9
g181
g182
g183
(dp187
g14
g15
sg16
Nsg17
g9
sg18
Nsg19
g181
sg20
I01
sg21
Nsg22
g23
stp188
sg31
g32
sg33
I0
ssS'doc:images/ucl-logo.png'
p189
(dp190
g6
(lp191
sg8
(g9
S'images/ucl-logo.png'
p192
S'.png'
p193
S'd56f1601fccc60ddd36df24f5f35274e-000'
p194
(dp195
g14
g15
sg16
Nsg17
g9
sg18
Nsg19
g192
sg20
I01
sg21
Nsg22
g23
stp196
sg16
S'Ucl Logo'
p197
sg26
I0
sg27
I0
sg28
(g9
g192
g193
g194
(dp198
g14
g15
sg16
Nsg17
g9
sg18
Nsg19
g192
sg20
I01
sg21
Nsg22
g23
stp199
sg31
g32
sg33
I0
ssS'doc:sass/partials/_globalmasthead.scss'
p200
(dp201
g6
(lp202
sg8
(g9
S'sass/partials/_globalmasthead.scss'
p203
S'.scss'
p204
S'ad17025e9cae3817e95afaf14850939b-000'
p205
(dp206
g14
g15
sg16
Nsg17
g9
sg18
Nsg19
g203
sg20
I01
sg21
Nsg22
g23
stp207
sg16
S' Globalmasthead'
p208
sg26
I0
sg27
I0
sg28
(g9
g203
g204
g205
(dp209
g14
g15
sg16
Nsg17
g9
sg18
Nsg19
g203
sg20
I01
sg21
Nsg22
g23
stp210
sg31
g32
sg33
I0
ssS'doc:favicon.ico'
p211
(dp212
g6
(lp213
sg8
(g9
S'favicon.ico'
p214
S'.ico'
p215
S'8af3a74ede48e250ceb935c026242483-000'
p216
(dp217
g14
g15
sg16
Nsg17
g9
sg18
Nsg19
g214
sg20
I01
sg21
Nsg22
g23
stp218
sg16
S'Favicon'
p219
sg26
I0
sg27
I0
sg28
(g9
g214
g215
g216
(dp220
g14
g15
sg16
Nsg17
g9
sg18
Nsg19
g214
sg20
I01
sg21
Nsg22
g23
stp221
sg31
g32
sg33
I0
ssS'doc:css/venue.min.css'
p222
(dp223
g6
(lp224
sg8
(g9
S'css/venue.min.css'
p225
S'.css'
p226
S'a8622e6aaff246a843bc6029298befe2-000'
p227
(dp228
g14
g15
sg16
Nsg17
g9
sg18
Nsg19
g225
sg20
I01
sg21
Nsg22
g23
stp229
sg16
S'Venue.Min'
p230
sg26
I0
sg27
I0
sg28
(g9
g225
g226
g227
(dp231
g14
g15
sg16
Nsg17
g9
sg18
Nsg19
g225
sg20
I01
sg21
Nsg22
g23
stp232
sg31
g32
sg33
I0
ssS'doc:js/src/respond.js'
p233
(dp234
g6
(lp235
sg8
(g9
S'js/src/respond.js'
p236
S'.js'
p237
S'24ca580dc27fb29795c3f83f6daec0b5-000'
p238
(dp239
g14
g15
sg16
Nsg17
g9
sg18
Nsg19
g236
sg20
I01
sg21
Nsg22
g23
stp240
sg16
S'Respond'
p241
sg26
I0
sg27
I0
sg28
(g9
g236
g237
g238
(dp242
g14
g15
sg16
Nsg17
g9
sg18
Nsg19
g236
sg20
I01
sg21
Nsg22
g23
stp243
sg31
g32
sg33
I0
ssS'doc:js/lib/backbone-1.1.2.min.js'
p244
(dp245
g6
(lp246
sg8
(g9
S'js/lib/backbone-1.1.2.min.js'
p247
S'.js'
p248
S'94420e3a646969f9e41b424e5da49ef4-000'
p249
(dp250
g14
g15
sg16
Nsg17
g9
sg18
Nsg19
g247
sg20
I01
sg21
Nsg22
g23
stp251
sg16
S'Backbone 1.1.2.Min'
p252
sg26
I0
sg27
I0
sg28
(g9
g247
g248
g249
(dp253
g14
g15
sg16
Nsg17
g9
sg18
Nsg19
g247
sg20
I01
sg21
Nsg22
g23
stp254
sg31
g32
sg33
I0
ssS'doc:sass/partials/_layout.scss'
p255
(dp256
g6
(lp257
sg8
(g9
S'sass/partials/_layout.scss'
p258
S'.scss'
p259
S'fa21e5d2f621c112aecae8745f1b6589-000'
p260
(dp261
g14
g15
sg16
Nsg17
g9
sg18
Nsg19
g258
sg20
I01
sg21
Nsg22
g23
stp262
sg16
S' Layout'
p263
sg26
I0
sg27
I0
sg28
(g9
g258
g259
g260
(dp264
g14
g15
sg16
Nsg17
g9
sg18
Nsg19
g258
sg20
I01
sg21
Nsg22
g23
stp265
sg31
g32
sg33
I0
ssS'doc:images/cells.jpg'
p266
(dp267
g6
(lp268
sg8
(g9
S'images/cells.jpg'
p269
S'.jpg'
p270
S'17f3dd20408bd3b4ba5e9f44861c4b1e-000'
p271
(dp272
g14
g15
sg16
Nsg17
g9
sg18
Nsg19
g269
sg20
I01
sg21
Nsg22
g23
stp273
sg16
S'Cells'
p274
sg26
I0
sg27
I0
sg28
(g9
g269
g270
g271
(dp275
g14
g15
sg16
Nsg17
g9
sg18
Nsg19
g269
sg20
I01
sg21
Nsg22
g23
stp276
sg31
g32
sg33
I0
ssS'doc:js/src/modernizr.js'
p277
(dp278
g6
(lp279
sg8
(g9
S'js/src/modernizr.js'
p280
S'.js'
p281
S'aba5aa2c190c37d212a5d62a8232e2f9-000'
p282
(dp283
g14
g15
sg16
Nsg17
g9
sg18
Nsg19
g280
sg20
I01
sg21
Nsg22
g23
stp284
sg16
S'Modernizr'
p285
sg26
I0
sg27
I0
sg28
(g9
g280
g281
g282
(dp286
g14
g15
sg16
Nsg17
g9
sg18
Nsg19
g280
sg20
I01
sg21
Nsg22
g23
stp287
sg31
g32
sg33
I0
ssS'doc:sass/jdibrief.scss'
p288
(dp289
g6
(lp290
sg8
(g9
S'sass/jdibrief.scss'
p291
S'.scss'
p292
S'd9635047e4db8437fc061335ccfb144f-000'
p293
(dp294
g14
g15
sg16
Nsg17
g9
sg18
Nsg19
g291
sg20
I01
sg21
Nsg22
g23
stp295
sg16
S'Jdibrief'
p296
sg26
I0
sg27
I0
sg28
(g9
g291
g292
g293
(dp297
g14
g15
sg16
Nsg17
g9
sg18
Nsg19
g291
sg20
I01
sg21
Nsg22
g23
stp298
sg31
g32
sg33
I0
ssS'doc:js/lib/underscore-1.min.js'
p299
(dp300
g6
(lp301
sg8
(g9
S'js/lib/underscore-1.min.js'
p302
S'.js'
p303
S'd52c8e754c1dced2f46d7416ed13b9f0-000'
p304
(dp305
g14
g15
sg16
Nsg17
g9
sg18
Nsg19
g302
sg20
I01
sg21
Nsg22
g23
stp306
sg16
S'Underscore 1.Min'
p307
sg26
I0
sg27
I0
sg28
(g9
g302
g303
g304
(dp308
g14
g15
sg16
Nsg17
g9
sg18
Nsg19
g302
sg20
I01
sg21
Nsg22
g23
stp309
sg31
g32
sg33
I0
ssS'doc:js/lib/underscore-1.6.0.min.js'
p310
(dp311
g6
(lp312
sg8
(g9
S'js/lib/underscore-1.6.0.min.js'
p313
S'.js'
p314
S'1a640d643bb08b3e965074252e8db317-000'
p315
(dp316
g14
g15
sg16
Nsg17
g9
sg18
Nsg19
g313
sg20
I01
sg21
Nsg22
g23
stp317
sg16
S'Underscore 1.6.0.Min'
p318
sg26
I0
sg27
I0
sg28
(g9
g313
g314
g315
(dp319
g14
g15
sg16
Nsg17
g9
sg18
Nsg19
g313
sg20
I01
sg21
Nsg22
g23
stp320
sg31
g32
sg33
I0
ssS'doc:sass/screen.scss'
p321
(dp322
g6
(lp323
sg8
(g9
S'sass/screen.scss'
p324
S'.scss'
p325
S'cd7337a3bb0094b8ae9e1a2ba0bb7473-000'
p326
(dp327
g14
g15
sg16
Nsg17
g9
sg18
Nsg19
g324
sg20
I01
sg21
Nsg22
g23
stp328
sg16
S'Screen'
p329
sg26
I0
sg27
I0
sg28
(g9
g324
g325
g326
(dp330
g14
g15
sg16
Nsg17
g9
sg18
Nsg19
g324
sg20
I01
sg21
Nsg22
g23
stp331
sg31
g32
sg33
I0
ssS'doc:js/lib/respond.min.js'
p332
(dp333
g6
(lp334
sg8
(g9
S'js/lib/respond.min.js'
p335
S'.js'
p336
S'54916d921b70fad9a1d6080df09ee94c-000'
p337
(dp338
g14
g15
sg16
Nsg17
g9
sg18
Nsg19
g335
sg20
I01
sg21
Nsg22
g23
stp339
sg16
S'Respond.Min'
p340
sg26
I0
sg27
I0
sg28
(g9
g335
g336
g337
(dp341
g14
g15
sg16
Nsg17
g9
sg18
Nsg19
g335
sg20
I01
sg21
Nsg22
g23
stp342
sg31
g32
sg33
I0
ssS'doc:sass/daylab.scss'
p343
(dp344
g6
(lp345
sg8
(g9
S'sass/daylab.scss'
p346
S'.scss'
p347
S'8177491c41b31a4273865ec64d74cd67-000'
p348
(dp349
g14
g15
sg16
Nsg17
g9
sg18
Nsg19
g346
sg20
I01
sg21
Nsg22
g23
stp350
sg16
S'Daylab'
p351
sg26
I0
sg27
I0
sg28
(g9
g346
g347
g348
(dp352
g14
g15
sg16
Nsg17
g9
sg18
Nsg19
g346
sg20
I01
sg21
Nsg22
g23
stp353
sg31
g32
sg33
I0
ssS'doc:images/respond.proxy.gif'
p354
(dp355
g6
(lp356
sg8
(g9
S'images/respond.proxy.gif'
p357
S'.gif'
p358
S'824c3d72d5ca77a1147be1a37b50b152-000'
p359
(dp360
g14
g15
sg16
Nsg17
g9
sg18
Nsg19
g357
sg20
I01
sg21
Nsg22
g23
stp361
sg16
S'Respond.Proxy'
p362
sg26
I0
sg27
I0
sg28
(g9
g357
g358
g359
(dp363
g14
g15
sg16
Nsg17
g9
sg18
Nsg19
g357
sg20
I01
sg21
Nsg22
g23
stp364
sg31
g32
sg33
I0
ssS'doc:js/lib/modernizr.min.js'
p365
(dp366
g6
(lp367
sg8
(g9
S'js/lib/modernizr.min.js'
p368
S'.js'
p369
S'28d40452abd5627c1558fd3a965b7993-000'
p370
(dp371
g14
g15
sg16
Nsg17
g9
sg18
Nsg19
g368
sg20
I01
sg21
Nsg22
g23
stp372
sg16
S'Modernizr.Min'
p373
sg26
I0
sg27
I0
sg28
(g9
g368
g369
g370
(dp374
g14
g15
sg16
Nsg17
g9
sg18
Nsg19
g368
sg20
I01
sg21
Nsg22
g23
stp375
sg31
g32
sg33
I0
ssS'doc:sass/partials/_elements.scss'
p376
(dp377
g6
(lp378
sg8
(g9
S'sass/partials/_elements.scss'
p379
S'.scss'
p380
S'602a754e6e92a8ee8e6fbfd5f2868ece-000'
p381
(dp382
g14
g15
sg16
Nsg17
g9
sg18
Nsg19
g379
sg20
I01
sg21
Nsg22
g23
stp383
sg16
S' Elements'
p384
sg26
I0
sg27
I0
sg28
(g9
g379
g380
g381
(dp385
g14
g15
sg16
Nsg17
g9
sg18
Nsg19
g379
sg20
I01
sg21
Nsg22
g23
stp386
sg31
g32
sg33
I0
ssS'doc:js/ResponsiveSlides.js'
p387
(dp388
g6
(lp389
sg8
(g9
S'js/ResponsiveSlides.js'
p390
S'.js'
p391
S'd23f887a6e87d0a2876a973681b158f1-000'
p392
(dp393
g14
g15
sg16
Nsg17
g9
sg18
Nsg19
g390
sg20
I01
sg21
Nsg22
g23
stp394
sg16
S'Responsive Slides'
p395
sg26
I0
sg27
I0
sg28
(g9
g390
g391
g392
(dp396
g14
g15
sg16
Nsg17
g9
sg18
Nsg19
g390
sg20
I01
sg21
Nsg22
g23
stp397
sg31
g32
sg33
I0
ssS'doc:js/lib/fastclick.min.js'
p398
(dp399
g6
(lp400
sg8
(g9
S'js/lib/fastclick.min.js'
p401
S'.js'
p402
S'9d7934d99094df69d3088724f1856c10-000'
p403
(dp404
g14
g15
sg16
Nsg17
g9
sg18
Nsg19
g401
sg20
I01
sg21
Nsg22
g23
stp405
sg16
S'Fastclick.Min'
p406
sg26
I0
sg27
I0
sg28
(g9
g401
g402
g403
(dp407
g14
g15
sg16
Nsg17
g9
sg18
Nsg19
g401
sg20
I01
sg21
Nsg22
g23
stp408
sg31
g32
sg33
I0
ssS'doc:sass/partials/_forms.scss'
p409
(dp410
g6
(lp411
sg8
(g9
S'sass/partials/_forms.scss'
p412
S'.scss'
p413
S'52118a27cb68cad70e9288692845789f-000'
p414
(dp415
g14
g15
sg16
Nsg17
g9
sg18
Nsg19
g412
sg20
I01
sg21
Nsg22
g23
stp416
sg16
S' Forms'
p417
sg26
I0
sg27
I0
sg28
(g9
g412
g413
g414
(dp418
g14
g15
sg16
Nsg17
g9
sg18
Nsg19
g412
sg20
I01
sg21
Nsg22
g23
stp419
sg31
g32
sg33
I0
ssS'doc:js/lib/jquery-2.1.1.min.js'
p420
(dp421
g6
(lp422
sg8
(g9
S'js/lib/jquery-2.1.1.min.js'
p423
S'.js'
p424
S'c0187d9834df2d048f6a10dff92469f5-000'
p425
(dp426
g14
g15
sg16
Nsg17
g9
sg18
Nsg19
g423
sg20
I01
sg21
Nsg22
g23
stp427
sg16
S'Jquery 2.1.1.Min'
p428
sg26
I0
sg27
I0
sg28
(g9
g423
g424
g425
(dp429
g14
g15
sg16
Nsg17
g9
sg18
Nsg19
g423
sg20
I01
sg21
Nsg22
g23
stp430
sg31
g32
sg33
I0
ssS'doc:css/yoursite.css'
p431
(dp432
g6
(lp433
sg8
(g9
S'css/yoursite.css'
p434
S'.css'
p435
S'2a09ac62d6e8f9b77f92ca2e2b242f7e-000'
p436
(dp437
g14
g15
sg16
Nsg17
g9
sg18
Nsg19
g434
sg20
I01
sg21
Nsg22
g23
stp438
sg16
S'Yoursite'
p439
sg26
I0
sg27
I0
sg28
(g9
g434
g435
g436
(dp440
g14
g15
sg16
Nsg17
g9
sg18
Nsg19
g434
sg20
I01
sg21
Nsg22
g23
stp441
sg31
g32
sg33
I0
ssS'doc:sass/partials/_reset.scss'
p442
(dp443
g6
(lp444
sg8
(g9
S'sass/partials/_reset.scss'
p445
S'.scss'
p446
S'11cfab197bf1951e24aff44b8d0e5260-000'
p447
(dp448
g14
g15
sg16
Nsg17
g9
sg18
Nsg19
g445
sg20
I01
sg21
Nsg22
g23
stp449
sg16
S' Reset'
p450
sg26
I0
sg27
I0
sg28
(g9
g445
g446
g447
(dp451
g14
g15
sg16
Nsg17
g9
sg18
Nsg19
g445
sg20
I01
sg21
Nsg22
g23
stp452
sg31
g32
sg33
I0
ssS'doc:js/lib/html5shiv-printshiv.min.js'
p453
(dp454
g6
(lp455
sg8
(g9
S'js/lib/html5shiv-printshiv.min.js'
p456
S'.js'
p457
S'5b0b9962215148cedff8e618df355249-000'
p458
(dp459
g14
g15
sg16
Nsg17
g9
sg18
Nsg19
g456
sg20
I01
sg21
Nsg22
g23
stp460
sg16
S'Html5shiv Printshiv.Min'
p461
sg26
I0
sg27
I0
sg28
(g9
g456
g457
g458
(dp462
g14
g15
sg16
Nsg17
g9
sg18
Nsg19
g456
sg20
I01
sg21
Nsg22
g23
stp463
sg31
g32
sg33
I0
ssS'doc:js/src/all-site/googleAnalytics.js'
p464
(dp465
g6
(lp466
sg8
(g9
S'js/src/all-site/googleAnalytics.js'
p467
S'.js'
p468
S'074acccb654df1de0515adb3a30b90a4-000'
p469
(dp470
g14
g15
sg16
Nsg17
g9
sg18
Nsg19
g467
sg20
I01
sg21
Nsg22
g23
stp471
sg16
S'Google Analytics'
p472
sg26
I0
sg27
I0
sg28
(g9
g467
g468
g469
(dp473
g14
g15
sg16
Nsg17
g9
sg18
Nsg19
g467
sg20
I01
sg21
Nsg22
g23
stp474
sg31
g32
sg33
I0
ssS'doc:js/main.js'
p475
(dp476
g6
(lp477
sg8
(g9
S'js/main.js'
p478
S'.js'
p479
S'77ab163850ef0fa98d6a9ee9fb6bbcaf-000'
p480
(dp481
g14
g15
sg16
Nsg17
g9
sg18
Nsg19
g478
sg20
I01
sg21
Nsg22
g23
stp482
sg16
S'Main'
p483
sg26
I0
sg27
I0
sg28
(g9
g478
g479
g480
(dp484
g14
g15
sg16
Nsg17
g9
sg18
Nsg19
g478
sg20
I01
sg21
Nsg22
g23
stp485
sg31
g32
sg33
I0
ssS'doc:js/lib/gridset-overlay.min.js'
p486
(dp487
g6
(lp488
sg8
(g9
S'js/lib/gridset-overlay.min.js'
p489
S'.js'
p490
S'02d252b80a839299e6fc26af8f57cad2-000'
p491
(dp492
g14
g15
sg16
Nsg17
g9
sg18
Nsg19
g489
sg20
I01
sg21
Nsg22
g23
stp493
sg16
S'Gridset Overlay.Min'
p494
sg26
I0
sg27
I0
sg28
(g9
g489
g490
g491
(dp495
g14
g15
sg16
Nsg17
g9
sg18
Nsg19
g489
sg20
I01
sg21
Nsg22
g23
stp496
sg31
g32
sg33
I0
ssS'doc:css/designlang.min.css'
p497
(dp498
g6
(lp499
sg8
(g9
S'css/designlang.min.css'
p500
S'.css'
p501
S'369e860c8e08a882d12fee6c0368b931-000'
p502
(dp503
g14
g15
sg16
Nsg17
g9
sg18
Nsg19
g500
sg20
I01
sg21
Nsg22
g23
stp504
sg16
S'Designlang.Min'
p505
sg26
I0
sg27
I0
sg28
(g9
g500
g501
g502
(dp506
g14
g15
sg16
Nsg17
g9
sg18
Nsg19
g500
sg20
I01
sg21
Nsg22
g23
stp507
sg31
g32
sg33
I0
ssS'doc:js/src/backbone-1.1.2.js'
p508
(dp509
g6
(lp510
sg8
(g9
S'js/src/backbone-1.1.2.js'
p511
S'.js'
p512
S'c5fe39f6c54016c075df23b38a6d305a-000'
p513
(dp514
g14
g15
sg16
Nsg17
g9
sg18
Nsg19
g511
sg20
I01
sg21
Nsg22
g23
stp515
sg16
S'Backbone 1.1.2'
p516
sg26
I0
sg27
I0
sg28
(g9
g511
g512
g513
(dp517
g14
g15
sg16
Nsg17
g9
sg18
Nsg19
g511
sg20
I01
sg21
Nsg22
g23
stp518
sg31
g32
sg33
I0
ssS'doc:favicon-152.png'
p519
(dp520
g6
(lp521
sg8
(g9
S'favicon-152.png'
p522
S'.png'
p523
S'84c62ebeebc5a66bf9ae5170f98a183c-000'
p524
(dp525
g14
g15
sg16
Nsg17
g9
sg18
Nsg19
g522
sg20
I01
sg21
Nsg22
g23
stp526
sg16
S'Favicon 152'
p527
sg26
I0
sg27
I0
sg28
(g9
g522
g523
g524
(dp528
g14
g15
sg16
Nsg17
g9
sg18
Nsg19
g522
sg20
I01
sg21
Nsg22
g23
stp529
sg31
g32
sg33
I0
ssS'doc:css/screen.min.css'
p530
(dp531
g6
(lp532
sg8
(g9
S'css/screen.min.css'
p533
S'.css'
p534
S'a74db87591967a5a07b7840719b47842-000'
p535
(dp536
g14
g15
sg16
Nsg17
g9
sg18
Nsg19
g533
sg20
I01
sg21
Nsg22
g23
stp537
sg16
S'Screen.Min'
p538
sg26
I0
sg27
I0
sg28
(g9
g533
g534
g535
(dp539
g14
g15
sg16
Nsg17
g9
sg18
Nsg19
g533
sg20
I01
sg21
Nsg22
g23
stp540
sg31
g32
sg33
I0
ssS'doc:images/mob-nav.png'
p541
(dp542
g6
(lp543
sg8
(g9
S'images/mob-nav.png'
p544
S'.png'
p545
S'5361926db686002c20d6ca36360aa7c2-000'
p546
(dp547
g14
g15
sg16
Nsg17
g9
sg18
Nsg19
g544
sg20
I01
sg21
Nsg22
g23
stp548
sg16
S'Mob Nav'
p549
sg26
I0
sg27
I0
sg28
(g9
g544
g545
g546
(dp550
g14
g15
sg16
Nsg17
g9
sg18
Nsg19
g544
sg20
I01
sg21
Nsg22
g23
stp551
sg31
g32
sg33
I0
ssS'doc:js/app/general.js'
p552
(dp553
g6
(lp554
sg8
(g9
S'js/app/general.js'
p555
S'.js'
p556
S'a08fe50c883d5e1c1feaa4a36fd6b020-000'
p557
(dp558
g14
g15
sg16
Nsg17
g9
sg18
Nsg19
g555
sg20
I01
sg21
Nsg22
g23
stp559
sg16
S'General'
p560
sg26
I0
sg27
I0
sg28
(g9
g555
g556
g557
(dp561
g14
g15
sg16
Nsg17
g9
sg18
Nsg19
g555
sg20
I01
sg21
Nsg22
g23
stp562
sg31
g32
sg33
I0
ssS'doc:css/daylab.min.css'
p563
(dp564
g6
(lp565
sg8
(g9
S'css/daylab.min.css'
p566
S'.css'
p567
S'c880456c3ed15b7517f4752cff022f07-000'
p568
(dp569
g14
g15
sg16
Nsg17
g9
sg18
Nsg19
g566
sg20
I01
sg21
Nsg22
g23
stp570
sg16
S'Daylab.Min'
p571
sg26
I0
sg27
I0
sg28
(g9
g566
g567
g568
(dp572
g14
g15
sg16
Nsg17
g9
sg18
Nsg19
g566
sg20
I01
sg21
Nsg22
g23
stp573
sg31
g32
sg33
I0
ssS'doc:js/lib/respond.proxy.min.js'
p574
(dp575
g6
(lp576
sg8
(g9
S'js/lib/respond.proxy.min.js'
p577
S'.js'
p578
S'8c60822d30d5c6284b6e434bd281c872-000'
p579
(dp580
g14
g15
sg16
Nsg17
g9
sg18
Nsg19
g577
sg20
I01
sg21
Nsg22
g23
stp581
sg16
S'Respond.Proxy.Min'
p582
sg26
I0
sg27
I0
sg28
(g9
g577
g578
g579
(dp583
g14
g15
sg16
Nsg17
g9
sg18
Nsg19
g577
sg20
I01
sg21
Nsg22
g23
stp584
sg31
g32
sg33
I0
ssS'doc:sass/partials/_carousel.scss'
p585
(dp586
g6
(lp587
sg8
(g9
S'sass/partials/_carousel.scss'
p588
S'.scss'
p589
S'74cf06609e61cff6e7cdc68e9e3877b8-000'
p590
(dp591
g14
g15
sg16
Nsg17
g9
sg18
Nsg19
g588
sg20
I01
sg21
Nsg22
g23
stp592
sg16
S' Carousel'
p593
sg26
I0
sg27
I0
sg28
(g9
g588
g589
g590
(dp594
g14
g15
sg16
Nsg17
g9
sg18
Nsg19
g588
sg20
I01
sg21
Nsg22
g23
stp595
sg31
g32
sg33
I0
ssS'doc:js/src/require.js'
p596
(dp597
g6
(lp598
sg8
(g9
S'js/src/require.js'
p599
S'.js'
p600
S'9dfa60e403a0d8eb6fd9027fd4a124b4-000'
p601
(dp602
g14
g15
sg16
Nsg17
g9
sg18
Nsg19
g599
sg20
I01
sg21
Nsg22
g23
stp603
sg16
S'Require'
p604
sg26
I0
sg27
I0
sg28
(g9
g599
g600
g601
(dp605
g14
g15
sg16
Nsg17
g9
sg18
Nsg19
g599
sg20
I01
sg21
Nsg22
g23
stp606
sg31
g32
sg33
I0
ssS'doc:js/lib/modernizr-custom.js'
p607
(dp608
g6
(lp609
sg8
(g9
S'js/lib/modernizr-custom.js'
p610
S'.js'
p611
S'a11d859acccb0994faf28f6e29bc247d-000'
p612
(dp613
g14
g15
sg16
Nsg17
g9
sg18
Nsg19
g610
sg20
I01
sg21
Nsg22
g23
stp614
sg16
S'Modernizr Custom'
p615
sg26
I0
sg27
I0
sg28
(g9
g610
g611
g612
(dp616
g14
g15
sg16
Nsg17
g9
sg18
Nsg19
g610
sg20
I01
sg21
Nsg22
g23
stp617
sg31
g32
sg33
I0
ssS'doc:_README.md|yamlargs|jinja|pandoc|h'
p618
(dp619
g6
(lp620
(g37
S'_README.md|yamlargs'
p621
S'.md'
p622
S'a05a0b991a71d8cff324f023e867da5a-001-yamlargs'
p623
(dp624
g14
g15
sg16
Nsg17
g9
sg18
Nsg19
S'_README.md'
p625
sg20
Nsg21
Nsg22
g23
stp626
a(g37
S'_README.md|yamlargs|jinja'
p627
g622
S'a05a0b991a71d8cff324f023e867da5a-002-yamlargs-jinja'
p628
(dp629
g14
g15
sg16
Nsg17
g9
sg18
Nsg19
S'_README.md'
p630
sg20
I01
sg21
Nsg22
g23
stp631
a(g37
S'_README.md|yamlargs|jinja|pandoc'
p632
g76
S'a05a0b991a71d8cff324f023e867da5a-003-yamlargs-jinja-pandoc'
p633
(dp634
g14
g15
sg16
Nsg17
g9
sg18
Nsg19
S'_README.html'
p635
sg20
I01
sg21
Nsg22
g23
stp636
a(g37
S'_README.md|yamlargs|jinja|pandoc|h'
p637
g82
S'a05a0b991a71d8cff324f023e867da5a-004-yamlargs-jinja-pandoc-h'
p638
(dp639
g14
g15
sg16
Nsg17
g9
sg18
Nsg19
S'_README.html'
p640
sg20
I01
sg21
Nsg22
g23
stp641
asg8
(g37
g637
g82
g638
(dp642
g14
g15
sg16
Nsg17
g9
sg18
Nsg19
g640
sg20
I01
sg21
Nsg22
g23
stp643
sg16
S' Readme'
p644
sg26
I0
sg27
I0
sg28
(g9
S'_README.md'
p645
g622
S'a05a0b991a71d8cff324f023e867da5a-000'
p646
(dp647
g14
g15
sg16
Nsg17
g9
sg18
Nsg19
g645
sg20
Nsg21
Nsg22
g23
stp648
sg31
g32
sg33
I0
ssS'doc:images/close.png'
p649
(dp650
g6
(lp651
sg8
(g9
S'images/close.png'
p652
S'.png'
p653
S'e072238cfa33540369d62b4c46897bca-000'
p654
(dp655
g14
g15
sg16
Nsg17
g9
sg18
Nsg19
g652
sg20
I01
sg21
Nsg22
g23
stp656
sg16
S'Close'
p657
sg26
I0
sg27
I0
sg28
(g9
g652
g653
g654
(dp658
g14
g15
sg16
Nsg17
g9
sg18
Nsg19
g652
sg20
I01
sg21
Nsg22
g23
stp659
sg31
g32
sg33
I0
ssS'doc:images/favicon.ico'
p660
(dp661
g6
(lp662
sg8
(g9
S'images/favicon.ico'
p663
S'.ico'
p664
S'157ffbd2160ce5903b1e076621b6e204-000'
p665
(dp666
g14
g15
sg16
Nsg17
g9
sg18
Nsg19
g663
sg20
I01
sg21
Nsg22
g23
stp667
sg16
S'Favicon'
p668
sg26
I0
sg27
I0
sg28
(g9
g663
g664
g665
(dp669
g14
g15
sg16
Nsg17
g9
sg18
Nsg19
g663
sg20
I01
sg21
Nsg22
g23
stp670
sg31
g32
sg33
I0
ssS'doc:js/src/gridset-overlay.js'
p671
(dp672
g6
(lp673
sg8
(g9
S'js/src/gridset-overlay.js'
p674
S'.js'
p675
S'90473fe0b23c6631ff6a438d007689b6-000'
p676
(dp677
g14
g15
sg16
Nsg17
g9
sg18
Nsg19
g674
sg20
I01
sg21
Nsg22
g23
stp678
sg16
S'Gridset Overlay'
p679
sg26
I0
sg27
I0
sg28
(g9
g674
g675
g676
(dp680
g14
g15
sg16
Nsg17
g9
sg18
Nsg19
g674
sg20
I01
sg21
Nsg22
g23
stp681
sg31
g32
sg33
I0
ssS'doc:sass/venue.scss'
p682
(dp683
g6
(lp684
sg8
(g9
S'sass/venue.scss'
p685
S'.scss'
p686
S'395c6c5153c57a5279e48255670ff83b-000'
p687
(dp688
g14
g15
sg16
Nsg17
g9
sg18
Nsg19
g685
sg20
I01
sg21
Nsg22
g23
stp689
sg16
S'Venue'
p690
sg26
I0
sg27
I0
sg28
(g9
g685
g686
g687
(dp691
g14
g15
sg16
Nsg17
g9
sg18
Nsg19
g685
sg20
I01
sg21
Nsg22
g23
stp692
sg31
g32
sg33
I0
ssS'doc:css/print.min.css'
p693
(dp694
g6
(lp695
sg8
(g9
S'css/print.min.css'
p696
S'.css'
p697
S'b82d5486a9b46ab3c87d8bcdf1ecbc4e-000'
p698
(dp699
g14
g15
sg16
Nsg17
g9
sg18
Nsg19
g696
sg20
I01
sg21
Nsg22
g23
stp700
sg16
S'Print.Min'
p701
sg26
I0
sg27
I0
sg28
(g9
g696
g697
g698
(dp702
g14
g15
sg16
Nsg17
g9
sg18
Nsg19
g696
sg20
I01
sg21
Nsg22
g23
stp703
sg31
g32
sg33
I0
ssS'doc:js/lib/all-site.min.js'
p704
(dp705
g6
(lp706
sg8
(g9
S'js/lib/all-site.min.js'
p707
S'.js'
p708
S'7a49f4cda7f29c966af67b4b93107f6e-000'
p709
(dp710
g14
g15
sg16
Nsg17
g9
sg18
Nsg19
g707
sg20
I01
sg21
Nsg22
g23
stp711
sg16
S'All Site.Min'
p712
sg26
I0
sg27
I0
sg28
(g9
g707
g708
g709
(dp713
g14
g15
sg16
Nsg17
g9
sg18
Nsg19
g707
sg20
I01
sg21
Nsg22
g23
stp714
sg31
g32
sg33
I0
ssS'doc:sass/print.scss'
p715
(dp716
g6
(lp717
sg8
(g9
S'sass/print.scss'
p718
S'.scss'
p719
S'ab9021596d51a63c2f3ee10e8950192e-000'
p720
(dp721
g14
g15
sg16
Nsg17
g9
sg18
Nsg19
g718
sg20
I01
sg21
Nsg22
g23
stp722
sg16
S'Print'
p723
sg26
I0
sg27
I0
sg28
(g9
g718
g719
g720
(dp724
g14
g15
sg16
Nsg17
g9
sg18
Nsg19
g718
sg20
I01
sg21
Nsg22
g23
stp725
sg31
g32
sg33
I0
ssS'doc:js/src/all-site/ucl.js'
p726
(dp727
g6
(lp728
sg8
(g9
S'js/src/all-site/ucl.js'
p729
S'.js'
p730
S'1646ba4501d4f8a7b19002f77ead20a1-000'
p731
(dp732
g14
g15
sg16
Nsg17
g9
sg18
Nsg19
g729
sg20
I01
sg21
Nsg22
g23
stp733
sg16
S'Ucl'
p734
sg26
I0
sg27
I0
sg28
(g9
g729
g730
g731
(dp735
g14
g15
sg16
Nsg17
g9
sg18
Nsg19
g729
sg20
I01
sg21
Nsg22
g23
stp736
sg31
g32
sg33
I0
ssS'doc:images/ucl-logo.svg'
p737
(dp738
g6
(lp739
sg8
(g9
S'images/ucl-logo.svg'
p740
S'.svg'
p741
S'117c344e09d4956c128bedb0042f9b6a-000'
p742
(dp743
g14
g15
sg16
Nsg17
g9
sg18
Nsg19
g740
sg20
I01
sg21
Nsg22
g23
stp744
sg16
S'Ucl Logo'
p745
sg26
I0
sg27
I0
sg28
(g9
g740
g741
g742
(dp746
g14
g15
sg16
Nsg17
g9
sg18
Nsg19
g740
sg20
I01
sg21
Nsg22
g23
stp747
sg31
g32
sg33
I0
ssS'doc:sass/ie.scss'
p748
(dp749
g6
(lp750
sg8
(g9
S'sass/ie.scss'
p751
S'.scss'
p752
S'398b1ddf052d748dfb30d507ac4b1828-000'
p753
(dp754
g14
g15
sg16
Nsg17
g9
sg18
Nsg19
g751
sg20
I01
sg21
Nsg22
g23
stp755
sg16
S'Ie'
p756
sg26
I0
sg27
I0
sg28
(g9
g751
g752
g753
(dp757
g14
g15
sg16
Nsg17
g9
sg18
Nsg19
g751
sg20
I01
sg21
Nsg22
g23
stp758
sg31
g32
sg33
I0
ssS'doc:sass/designlang.scss'
p759
(dp760
g6
(lp761
sg8
(g9
S'sass/designlang.scss'
p762
S'.scss'
p763
S'a08e985798f01d085cbf290c75fd14d2-000'
p764
(dp765
g14
g15
sg16
Nsg17
g9
sg18
Nsg19
g762
sg20
I01
sg21
Nsg22
g23
stp766
sg16
S'Designlang'
p767
sg26
I0
sg27
I0
sg28
(g9
g762
g763
g764
(dp768
g14
g15
sg16
Nsg17
g9
sg18
Nsg19
g762
sg20
I01
sg21
Nsg22
g23
stp769
sg31
g32
sg33
I0
ssS'doc:images/ucl-portico.jpg'
p770
(dp771
g6
(lp772
sg8
(g9
S'images/ucl-portico.jpg'
p773
S'.jpg'
p774
S'b60536b4d72927aa98497daba1349fd4-000'
p775
(dp776
g14
g15
sg16
Nsg17
g9
sg18
Nsg19
g773
sg20
I01
sg21
Nsg22
g23
stp777
sg16
S'Ucl Portico'
p778
sg26
I0
sg27
I0
sg28
(g9
g773
g774
g775
(dp779
g14
g15
sg16
Nsg17
g9
sg18
Nsg19
g773
sg20
I01
sg21
Nsg22
g23
stp780
sg31
g32
sg33
I0
ssS'doc:js/src/jquery-2.1.1.js'
p781
(dp782
g6
(lp783
sg8
(g9
S'js/src/jquery-2.1.1.js'
p784
S'.js'
p785
S'a48364c9ba5b2c25656ece470e16a9ad-000'
p786
(dp787
g14
g15
sg16
Nsg17
g9
sg18
Nsg19
g784
sg20
I01
sg21
Nsg22
g23
stp788
sg16
S'Jquery 2.1.1'
p789
sg26
I0
sg27
I0
sg28
(g9
g784
g785
g786
(dp790
g14
g15
sg16
Nsg17
g9
sg18
Nsg19
g784
sg20
I01
sg21
Nsg22
g23
stp791
sg31
g32
sg33
I0
ssS'doc:js/src/html5shiv-printshiv.js'
p792
(dp793
g6
(lp794
sg8
(g9
S'js/src/html5shiv-printshiv.js'
p795
S'.js'
p796
S'84f7b4d2c8ae83e4f7f033e2d15a9b19-000'
p797
(dp798
g14
g15
sg16
Nsg17
g9
sg18
Nsg19
g795
sg20
I01
sg21
Nsg22
g23
stp799
sg16
S'Html5shiv Printshiv'
p800
sg26
I0
sg27
I0
sg28
(g9
g795
g796
g797
(dp801
g14
g15
sg16
Nsg17
g9
sg18
Nsg19
g795
sg20
I01
sg21
Nsg22
g23
stp802
sg31
g32
sg33
I0
ssS'doc:js/src/underscore-1.6.0.js'
p803
(dp804
g6
(lp805
sg8
(g9
S'js/src/underscore-1.6.0.js'
p806
S'.js'
p807
S'e26d816b4c64fcbe1b2f140c2ee38b58-000'
p808
(dp809
g14
g15
sg16
Nsg17
g9
sg18
Nsg19
g806
sg20
I01
sg21
Nsg22
g23
stp810
sg16
S'Underscore 1.6.0'
p811
sg26
I0
sg27
I0
sg28
(g9
g806
g807
g808
(dp812
g14
g15
sg16
Nsg17
g9
sg18
Nsg19
g806
sg20
I01
sg21
Nsg22
g23
stp813
sg31
g32
sg33
I0
ssS'doc:js/src/respond.proxy.js'
p814
(dp815
g6
(lp816
sg8
(g9
S'js/src/respond.proxy.js'
p817
S'.js'
p818
S'ca6bc7b76e47818335b69aeac715d1cc-000'
p819
(dp820
g14
g15
sg16
Nsg17
g9
sg18
Nsg19
g817
sg20
I01
sg21
Nsg22
g23
stp821
sg16
S'Respond.Proxy'
p822
sg26
I0
sg27
I0
sg28
(g9
g817
g818
g819
(dp823
g14
g15
sg16
Nsg17
g9
sg18
Nsg19
g817
sg20
I01
sg21
Nsg22
g23
stp824
sg31
g32
sg33
I0
ssS'doc:js/src/all-site/gridset-overlay.js'
p825
(dp826
g6
(lp827
sg8
(g9
S'js/src/all-site/gridset-overlay.js'
p828
S'.js'
p829
S'e6ac1dd8ec85885c740bfd33c4742e28-000'
p830
(dp831
g14
g15
sg16
Nsg17
g9
sg18
Nsg19
g828
sg20
I01
sg21
Nsg22
g23
stp832
sg16
S'Gridset Overlay'
p833
sg26
I0
sg27
I0
sg28
(g9
g828
g829
g830
(dp834
g14
g15
sg16
Nsg17
g9
sg18
Nsg19
g828
sg20
I01
sg21
Nsg22
g23
stp835
sg31
g32
sg33
I0
ssS'doc:css/jdibrief.min.css'
p836
(dp837
g6
(lp838
sg8
(g9
S'css/jdibrief.min.css'
p839
S'.css'
p840
S'749cdf36a57632437894056cfae5aeff-000'
p841
(dp842
g14
g15
sg16
Nsg17
g9
sg18
Nsg19
g839
sg20
I01
sg21
Nsg22
g23
stp843
sg16
S'Jdibrief.Min'
p844
sg26
I0
sg27
I0
sg28
(g9
g839
g840
g841
(dp845
g14
g15
sg16
Nsg17
g9
sg18
Nsg19
g839
sg20
I01
sg21
Nsg22
g23
stp846
sg31
g32
sg33
I0
ssS'doc:sass/partials/_colors.scss'
p847
(dp848
g6
(lp849
sg8
(g9
S'sass/partials/_colors.scss'
p850
S'.scss'
p851
S'80015c6b943058bdc08363e77a9e7a98-000'
p852
(dp853
g14
g15
sg16
Nsg17
g9
sg18
Nsg19
g850
sg20
I01
sg21
Nsg22
g23
stp854
sg16
S' Colors'
p855
sg26
I0
sg27
I0
sg28
(g9
g850
g851
g852
(dp856
g14
g15
sg16
Nsg17
g9
sg18
Nsg19
g850
sg20
I01
sg21
Nsg22
g23
stp857
sg31
g32
sg33
I0
ssS'doc:css/ie.min.css'
p858
(dp859
g6
(lp860
sg8
(g9
S'css/ie.min.css'
p861
S'.css'
p862
S'84347edea820f2531df9a060a75988bb-000'
p863
(dp864
g14
g15
sg16
Nsg17
g9
sg18
Nsg19
g861
sg20
I01
sg21
Nsg22
g23
stp865
sg16
S'Ie.Min'
p866
sg26
I0
sg27
I0
sg28
(g9
g861
g862
g863
(dp867
g14
g15
sg16
Nsg17
g9
sg18
Nsg19
g861
sg20
I01
sg21
Nsg22
g23
stp868
sg31
g32
sg33
I0
ssS'doc:favicon-144.png'
p869
(dp870
g6
(lp871
sg8
(g9
S'favicon-144.png'
p872
S'.png'
p873
S'52e890938525b00b27f330423509b608-000'
p874
(dp875
g14
g15
sg16
Nsg17
g9
sg18
Nsg19
g872
sg20
I01
sg21
Nsg22
g23
stp876
sg16
S'Favicon 144'
p877
sg26
I0
sg27
I0
sg28
(g9
g872
g873
g874
(dp878
g14
g15
sg16
Nsg17
g9
sg18
Nsg19
g872
sg20
I01
sg21
Nsg22
g23
stp879
sg31
g32
sg33
I0
ssS'doc:sass/partials/_search.scss'
p880
(dp881
g6
(lp882
sg8
(g9
S'sass/partials/_search.scss'
p883
S'.scss'
p884
S'cd6b12aa976ef19fc30fce90394326a4-000'
p885
(dp886
g14
g15
sg16
Nsg17
g9
sg18
Nsg19
g883
sg20
I01
sg21
Nsg22
g23
stp887
sg16
S' Search'
p888
sg26
I0
sg27
I0
sg28
(g9
g883
g884
g885
(dp889
g14
g15
sg16
Nsg17
g9
sg18
Nsg19
g883
sg20
I01
sg21
Nsg22
g23
stp890
sg31
g32
sg33
I0
ssS'doc:js/src/fastclick.js'
p891
(dp892
g6
(lp893
sg8
(g9
S'js/src/fastclick.js'
p894
S'.js'
p895
S'c723c8b8354b16b6a6a8965125726be7-000'
p896
(dp897
g14
g15
sg16
Nsg17
g9
sg18
Nsg19
g894
sg20
I01
sg21
Nsg22
g23
stp898
sg16
S'Fastclick'
p899
sg26
I0
sg27
I0
sg28
(g9
g894
g895
g896
(dp900
g14
g15
sg16
Nsg17
g9
sg18
Nsg19
g894
sg20
I01
sg21
Nsg22
g23
stp901
sg31
g32
sg33
I0
ssS'doc:sass/partials/_blog.scss'
p902
(dp903
g6
(lp904
sg8
(g9
S'sass/partials/_blog.scss'
p905
S'.scss'
p906
S'98696aa73faa753adab490aea8837a7d-000'
p907
(dp908
g14
g15
sg16
Nsg17
g9
sg18
Nsg19
g905
sg20
I01
sg21
Nsg22
g23
stp909
sg16
S' Blog'
p910
sg26
I0
sg27
I0
sg28
(g9
g905
g906
g907
(dp911
g14
g15
sg16
Nsg17
g9
sg18
Nsg19
g905
sg20
I01
sg21
Nsg22
g23
stp912
sg31
g32
sg33
I0
ssS'doc:js/src/all-site.js'
p913
(dp914
g6
(lp915
sg8
(g9
S'js/src/all-site.js'
p916
S'.js'
p917
S'262398dbae71151ce30e6becf834b4dc-000'
p918
(dp919
g14
g15
sg16
Nsg17
g9
sg18
Nsg19
g916
sg20
I01
sg21
Nsg22
g23
stp920
sg16
S'All Site'
p921
sg26
I0
sg27
I0
sg28
(g9
g916
g917
g918
(dp922
g14
g15
sg16
Nsg17
g9
sg18
Nsg19
g916
sg20
I01
sg21
Nsg22
g23
stp923
sg31
g32
sg33
I0
ssS'doc:sass/mixins/_media-query.scss'
p924
(dp925
g6
(lp926
sg8
(g9
S'sass/mixins/_media-query.scss'
p927
S'.scss'
p928
S'bc206a60b39b273f60ba72dc83e9f25f-000'
p929
(dp930
g14
g15
sg16
Nsg17
g9
sg18
Nsg19
g927
sg20
I01
sg21
Nsg22
g23
stp931
sg16
S' Media Query'
p932
sg26
I0
sg27
I0
sg28
(g9
g927
g928
g929
(dp933
g14
g15
sg16
Nsg17
g9
sg18
Nsg19
g927
sg20
I01
sg21
Nsg22
g23
stp934
sg31
g32
sg33
I0
sssS'filters_used'
p935
(lp936
S'yamlargs'
p937
aS'jinja'
p938
aS'pandoc'
p939
aS'h'
aS'yamlargs'
p940
aS'jinja'
p941
aS'pandoc'
p942
aS'h'
aS'yamlargs'
p943
aS'jinja'
p944
aS'pandoc'
p945
aS'h'
ag937
ag938
ag939
aS'h'
ag940
ag941
ag942
aS'h'
ag943
ag944
ag945
aS'h'
ag937
ag938
ag939
aS'h'
ag940
ag941
ag942
aS'h'
asS'uuid'
p946
S'5e22aa4b-0246-4c32-bd2b-218b33f7390b'
p947
sS'doc_keys'
p948
(dp949
g491
S'doc:js/lib/gridset-overlay.min.js'
p950
sg12
S'doc:js/lib/backbone-1.min.js'
p951
sg260
S'doc:sass/partials/_layout.scss'
p952
sg447
S'doc:sass/partials/_reset.scss'
p953
sg753
S'doc:sass/ie.scss'
p954
sg676
S'doc:js/src/gridset-overlay.js'
p955
sg524
S'doc:favicon-152.png'
p956
sg403
S'doc:js/lib/fastclick.min.js'
p957
sg348
S'doc:sass/daylab.scss'
p958
sg638
S'doc:_README.md|yamlargs|jinja|pandoc|h'
p959
sg557
S'doc:js/app/general.js'
p960
sg841
S'doc:css/jdibrief.min.css'
p961
sg874
S'doc:favicon-144.png'
p962
sg381
S'doc:sass/partials/_elements.scss'
p963
sg786
S'doc:js/src/jquery-2.1.1.js'
p964
sg271
S'doc:images/cells.jpg'
p965
sg797
S'doc:js/src/html5shiv-printshiv.js'
p966
sg216
S'doc:favicon.ico'
p967
sg513
S'doc:js/src/backbone-1.1.2.js'
p968
sg183
S'doc:js/lib/jquery-1.7.1.min.js'
p969
sg687
S'doc:sass/venue.scss'
p970
sg370
S'doc:js/lib/modernizr.min.js'
p971
sg161
S'doc:js/lib/require.min.js'
p972
sg720
S'doc:sass/print.scss'
p973
sg698
S'doc:css/print.min.css'
p974
sg172
S'doc:sass/partials/_gridset.scss'
p975
sg282
S'doc:js/src/modernizr.js'
p976
sg896
S'doc:js/src/fastclick.js'
p977
sg359
S'doc:images/respond.proxy.gif'
p978
sg731
S'doc:js/src/all-site/ucl.js'
p979
sg304
S'doc:js/lib/underscore-1.min.js'
p980
sg885
S'doc:sass/partials/_search.scss'
p981
sg918
S'doc:js/src/all-site.js'
p982
sg929
S'doc:sass/mixins/_media-query.scss'
p983
sg436
S'doc:css/yoursite.css'
p984
sg535
S'doc:css/screen.min.css'
p985
sg665
S'doc:images/favicon.ico'
p986
sg830
S'doc:js/src/all-site/gridset-overlay.js'
p987
sg709
S'doc:js/lib/all-site.min.js'
p988
sg742
S'doc:images/ucl-logo.svg'
p989
sg590
S'doc:sass/partials/_carousel.scss'
p990
sg146
S'doc:index.md|yamlargs|jinja|pandoc|h'
p991
sg819
S'doc:js/src/respond.proxy.js'
p992
sg238
S'doc:js/src/respond.js'
p993
sg469
S'doc:js/src/all-site/googleAnalytics.js'
p994
sg99
S'doc:sass/partials/_typography.scss'
p995
sg293
S'doc:sass/jdibrief.scss'
p996
sg546
S'doc:images/mob-nav.png'
p997
sg392
S'doc:js/ResponsiveSlides.js'
p998
sg568
S'doc:css/daylab.min.css'
p999
sg852
S'doc:sass/partials/_colors.scss'
p1000
sg337
S'doc:js/lib/respond.min.js'
p1001
sg601
S'doc:js/src/require.js'
p1002
sg249
S'doc:js/lib/backbone-1.1.2.min.js'
p1003
sg194
S'doc:images/ucl-logo.png'
p1004
sg502
S'doc:css/designlang.min.css'
p1005
sg315
S'doc:js/lib/underscore-1.6.0.min.js'
p1006
sg480
S'doc:js/main.js'
p1007
sg907
S'doc:sass/partials/_blog.scss'
p1008
sg227
S'doc:css/venue.min.css'
p1009
sg205
S'doc:sass/partials/_globalmasthead.scss'
p1010
sg808
S'doc:js/src/underscore-1.6.0.js'
p1011
sg579
S'doc:js/lib/respond.proxy.min.js'
p1012
sg863
S'doc:css/ie.min.css'
p1013
sg654
S'doc:images/close.png'
p1014
sg775
S'doc:images/ucl-portico.jpg'
p1015
sg83
S'doc:subfolder/index.md|yamlargs|jinja|pandoc|h'
p1016
sg612
S'doc:js/lib/modernizr-custom.js'
p1017
sg458
S'doc:js/lib/html5shiv-printshiv.min.js'
p1018
sg326
S'doc:sass/screen.scss'
p1019
sg425
S'doc:js/lib/jquery-2.1.1.min.js'
p1020
sg414
S'doc:sass/partials/_forms.scss'
p1021
sg764
S'doc:sass/designlang.scss'
p1022
ss.