(dp1
S'docs'
p2
(dp3
S'doc:js/lib/backbone-1.min.js'
p4
(dp5
S'filters-data'
p6
(lp7
sS'output-data'
p8
(S'generic'
p9
S'js/lib/backbone-1.min.js'
p10
S'.js'
p11
S'2f82adeb389a47aadf34bc39d7882230-000'
p12
(dp13
S'help'
p14
S'Data type representing generic binary or text-based data in a single blob.'
p15
sS'title'
p16
NsS'storage-type'
p17
g9
sS'shortcut'
p18
NsS'canonical-name'
p19
g10
sS'canonical-output'
p20
I01
sS'output-name'
p21
NsS'aliases'
p22
(lp23
g9
astp24
sg16
S'Backbone 1.Min'
p25
sS'finish_time'
p26
I0
sS'start_time'
p27
I0
sS'input-data'
p28
(g9
g10
g11
g12
(dp29
g14
g15
sg16
Nsg17
g9
sg18
Nsg19
g10
sg20
I01
sg21
Nsg22
g23
stp30
sS'state'
p31
S'cached'
p32
sS'elapsed'
p33
I0
ssS'doc:subfolder/index.md|yamlargs|jinja|pandoc|h'
p34
(dp35
g6
(lp36
(S'generic'
p37
S'subfolder/index.md|yamlargs'
p38
S'.md'
p39
S'ce0fc7d33801e3bb4f1d5e8a7b5552b5-001-yamlargs'
p40
(dp41
g14
g15
sg16
S'Another page'
p42
sg17
g9
sg18
Nsg20
NsS'crumbs'
p43
(dp44
S'content'
p45
(lp46
(dp47
S'text'
p48
S'RITS'
p49
sS'link'
p50
S'research-it-services'
p51
sa(dp52
S'text'
p53
S'RITS'
p54
sS'link'
p55
S'research-it-services'
p56
sassg19
S'subfolder/index.md'
p57
sg21
Nsg22
g23
sS'findfast'
p58
(dp59
S'links'
p60
(lp61
(dp62
S'text'
p63
S'training 2'
p64
sS'link'
p65
S'http://development.rc.ucl.ac.uk/training'
p66
sasS'title'
p67
S'Quick Links in page'
p68
sstp69
a(g37
S'subfolder/index.md|yamlargs|jinja'
p70
g39
S'ce0fc7d33801e3bb4f1d5e8a7b5552b5-002-yamlargs-jinja'
p71
(dp72
g14
g15
sg16
g42
sg17
g9
sg18
Nsg20
I01
sg43
g44
sg19
S'subfolder/index.md'
p73
sg21
Nsg22
g23
sg58
g59
stp74
a(g37
S'subfolder/index.md|yamlargs|jinja|pandoc'
p75
S'.html'
p76
S'ce0fc7d33801e3bb4f1d5e8a7b5552b5-003-yamlargs-jinja-pandoc'
p77
(dp78
g14
g15
sg16
g42
sg17
g9
sg18
Nsg20
I01
sg43
g44
sg19
S'subfolder/index.html'
p79
sg21
Nsg22
g23
sg58
g59
stp80
a(g37
S'subfolder/index.md|yamlargs|jinja|pandoc|h'
p81
S'.html'
p82
S'ce0fc7d33801e3bb4f1d5e8a7b5552b5-004-yamlargs-jinja-pandoc-h'
p83
(dp84
g14
g15
sg16
g42
sg17
g9
sg18
Nsg20
I01
sg43
g44
sg19
S'subfolder/index.html'
p85
sg21
Nsg22
g23
sg58
g59
stp86
asg8
(g37
g81
g82
g83
(dp87
g14
g15
sg16
g42
sg17
g9
sg18
Nsg20
I01
sg43
g44
sg19
g85
sg21
Nsg22
g23
sg58
g59
stp88
sg16
g42
sg26
I0
sg27
I0
sg28
(g9
S'subfolder/index.md'
p89
g39
S'ce0fc7d33801e3bb4f1d5e8a7b5552b5-000'
p90
(dp91
g14
g15
sg16
g42
sg17
g9
sg18
Nsg20
Nsg43
g44
sg19
g89
sg21
Nsg22
g23
sg58
g59
stp92
sg31
g32
sg33
I0
ssS'doc:sass/partials/_typography.scss'
p93
(dp94
g6
(lp95
sg8
(g9
S'sass/partials/_typography.scss'
p96
S'.scss'
p97
S'8f29bf1462510d2fea429785ee154e88-000'
p98
(dp99
g14
g15
sg16
Nsg17
g9
sg18
Nsg19
g96
sg20
I01
sg21
Nsg22
g23
stp100
sg16
S' Typography'
p101
sg26
I0
sg27
I0
sg28
(g9
g96
g97
g98
(dp102
g14
g15
sg16
Nsg17
g9
sg18
Nsg19
g96
sg20
I01
sg21
Nsg22
g23
stp103
sg31
g32
sg33
I0
ssS'doc:index.md|yamlargs|jinja|pandoc|h'
p104
(dp105
g6
(lp106
(g37
S'index.md|yamlargs'
p107
S'.md'
p108
S'475d59cfe941211e1c3dcb17c3b74b97-001-yamlargs'
p109
(dp110
g14
g15
sg16
S'An Example Page'
p111
sg17
g9
sg18
Nsg20
NsS'crumbs'
p112
(dp113
S'content'
p114
(lp115
(dp116
S'text'
p117
S'RITS'
p118
sS'link'
p119
S'research-it-services'
p120
sassg19
S'index.md'
p121
sg21
Nsg22
g23
sS'findfast'
p122
(dp123
S'links'
p124
(lp125
(dp126
S'text'
p127
S'training 2'
p128
sS'link'
p129
S'http://development.rc.ucl.ac.uk/training'
p130
sasS'title'
p131
S'Quick Links in page'
p132
sstp133
a(g37
S'index.md|yamlargs|jinja'
p134
g108
S'475d59cfe941211e1c3dcb17c3b74b97-002-yamlargs-jinja'
p135
(dp136
g14
g15
sg16
g111
sg17
g9
sg18
Nsg20
I01
sg112
g113
sg19
S'index.md'
p137
sg21
Nsg22
g23
sg122
g123
stp138
a(g37
S'index.md|yamlargs|jinja|pandoc'
p139
g76
S'475d59cfe941211e1c3dcb17c3b74b97-003-yamlargs-jinja-pandoc'
p140
(dp141
g14
g15
sg16
g111
sg17
g9
sg18
Nsg20
I01
sg112
g113
sg19
S'index.html'
p142
sg21
Nsg22
g23
sg122
g123
stp143
a(g37
S'index.md|yamlargs|jinja|pandoc|h'
p144
g82
S'475d59cfe941211e1c3dcb17c3b74b97-004-yamlargs-jinja-pandoc-h'
p145
(dp146
g14
g15
sg16
g111
sg17
g9
sg18
Nsg20
I01
sg112
g113
sg19
S'index.html'
p147
sg21
Nsg22
g23
sg122
g123
stp148
asg8
(g37
g144
g82
g145
(dp149
g14
g15
sg16
g111
sg17
g9
sg18
Nsg20
I01
sg112
g113
sg19
g147
sg21
Nsg22
g23
sg122
g123
stp150
sg16
g111
sg26
I0
sg27
I0
sg28
(g9
S'index.md'
p151
g108
S'475d59cfe941211e1c3dcb17c3b74b97-000'
p152
(dp153
g14
g15
sg16
g111
sg17
g9
sg18
Nsg20
Nsg112
g113
sg19
g151
sg21
Nsg22
g23
sg122
g123
stp154
sg31
g32
sg33
I0
ssS'doc:js/lib/require.min.js'
p155
(dp156
g6
(lp157
sg8
(g9
S'js/lib/require.min.js'
p158
S'.js'
p159
S'49d2d0adf94bd0cf0e3b72afbb9e5248-000'
p160
(dp161
g14
g15
sg16
Nsg17
g9
sg18
Nsg19
g158
sg20
I01
sg21
Nsg22
g23
stp162
sg16
S'Require.Min'
p163
sg26
I0
sg27
I0
sg28
(g9
g158
g159
g160
(dp164
g14
g15
sg16
Nsg17
g9
sg18
Nsg19
g158
sg20
I01
sg21
Nsg22
g23
stp165
sg31
g32
sg33
I0
ssS'doc:sass/partials/_gridset.scss'
p166
(dp167
g6
(lp168
sg8
(g9
S'sass/partials/_gridset.scss'
p169
S'.scss'
p170
S'5d346a500ae0e8d04acb31cd30a186e5-000'
p171
(dp172
g14
g15
sg16
Nsg17
g9
sg18
Nsg19
g169
sg20
I01
sg21
Nsg22
g23
stp173
sg16
S' Gridset'
p174
sg26
I0
sg27
I0
sg28
(g9
g169
g170
g171
(dp175
g14
g15
sg16
Nsg17
g9
sg18
Nsg19
g169
sg20
I01
sg21
Nsg22
g23
stp176
sg31
g32
sg33
I0
ssS'doc:js/lib/jquery-1.7.1.min.js'
p177
(dp178
g6
(lp179
sg8
(g9
S'js/lib/jquery-1.7.1.min.js'
p180
S'.js'
p181
S'47ecd1de1b1a0023d779aaf6ca60827e-000'
p182
(dp183
g14
g15
sg16
Nsg17
g9
sg18
Nsg19
g180
sg20
I01
sg21
Nsg22
g23
stp184
sg16
S'Jquery 1.7.1.Min'
p185
sg26
I0
sg27
I0
sg28
(g9
g180
g181
g182
(dp186
g14
g15
sg16
Nsg17
g9
sg18
Nsg19
g180
sg20
I01
sg21
Nsg22
g23
stp187
sg31
g32
sg33
I0
ssS'doc:images/ucl-logo.png'
p188
(dp189
g6
(lp190
sg8
(g9
S'images/ucl-logo.png'
p191
S'.png'
p192
S'd56f1601fccc60ddd36df24f5f35274e-000'
p193
(dp194
g14
g15
sg16
Nsg17
g9
sg18
Nsg19
g191
sg20
I01
sg21
Nsg22
g23
stp195
sg16
S'Ucl Logo'
p196
sg26
I0
sg27
I0
sg28
(g9
g191
g192
g193
(dp197
g14
g15
sg16
Nsg17
g9
sg18
Nsg19
g191
sg20
I01
sg21
Nsg22
g23
stp198
sg31
g32
sg33
I0
ssS'doc:sass/partials/_globalmasthead.scss'
p199
(dp200
g6
(lp201
sg8
(g9
S'sass/partials/_globalmasthead.scss'
p202
S'.scss'
p203
S'ad17025e9cae3817e95afaf14850939b-000'
p204
(dp205
g14
g15
sg16
Nsg17
g9
sg18
Nsg19
g202
sg20
I01
sg21
Nsg22
g23
stp206
sg16
S' Globalmasthead'
p207
sg26
I0
sg27
I0
sg28
(g9
g202
g203
g204
(dp208
g14
g15
sg16
Nsg17
g9
sg18
Nsg19
g202
sg20
I01
sg21
Nsg22
g23
stp209
sg31
g32
sg33
I0
ssS'doc:favicon.ico'
p210
(dp211
g6
(lp212
sg8
(g9
S'favicon.ico'
p213
S'.ico'
p214
S'8af3a74ede48e250ceb935c026242483-000'
p215
(dp216
g14
g15
sg16
Nsg17
g9
sg18
Nsg19
g213
sg20
I01
sg21
Nsg22
g23
stp217
sg16
S'Favicon'
p218
sg26
I0
sg27
I0
sg28
(g9
g213
g214
g215
(dp219
g14
g15
sg16
Nsg17
g9
sg18
Nsg19
g213
sg20
I01
sg21
Nsg22
g23
stp220
sg31
g32
sg33
I0
ssS'doc:css/venue.min.css'
p221
(dp222
g6
(lp223
sg8
(g9
S'css/venue.min.css'
p224
S'.css'
p225
S'a8622e6aaff246a843bc6029298befe2-000'
p226
(dp227
g14
g15
sg16
Nsg17
g9
sg18
Nsg19
g224
sg20
I01
sg21
Nsg22
g23
stp228
sg16
S'Venue.Min'
p229
sg26
I0
sg27
I0
sg28
(g9
g224
g225
g226
(dp230
g14
g15
sg16
Nsg17
g9
sg18
Nsg19
g224
sg20
I01
sg21
Nsg22
g23
stp231
sg31
g32
sg33
I0
ssS'doc:js/src/respond.js'
p232
(dp233
g6
(lp234
sg8
(g9
S'js/src/respond.js'
p235
S'.js'
p236
S'24ca580dc27fb29795c3f83f6daec0b5-000'
p237
(dp238
g14
g15
sg16
Nsg17
g9
sg18
Nsg19
g235
sg20
I01
sg21
Nsg22
g23
stp239
sg16
S'Respond'
p240
sg26
I0
sg27
I0
sg28
(g9
g235
g236
g237
(dp241
g14
g15
sg16
Nsg17
g9
sg18
Nsg19
g235
sg20
I01
sg21
Nsg22
g23
stp242
sg31
g32
sg33
I0
ssS'doc:js/lib/backbone-1.1.2.min.js'
p243
(dp244
g6
(lp245
sg8
(g9
S'js/lib/backbone-1.1.2.min.js'
p246
S'.js'
p247
S'94420e3a646969f9e41b424e5da49ef4-000'
p248
(dp249
g14
g15
sg16
Nsg17
g9
sg18
Nsg19
g246
sg20
I01
sg21
Nsg22
g23
stp250
sg16
S'Backbone 1.1.2.Min'
p251
sg26
I0
sg27
I0
sg28
(g9
g246
g247
g248
(dp252
g14
g15
sg16
Nsg17
g9
sg18
Nsg19
g246
sg20
I01
sg21
Nsg22
g23
stp253
sg31
g32
sg33
I0
ssS'doc:sass/partials/_layout.scss'
p254
(dp255
g6
(lp256
sg8
(g9
S'sass/partials/_layout.scss'
p257
S'.scss'
p258
S'fa21e5d2f621c112aecae8745f1b6589-000'
p259
(dp260
g14
g15
sg16
Nsg17
g9
sg18
Nsg19
g257
sg20
I01
sg21
Nsg22
g23
stp261
sg16
S' Layout'
p262
sg26
I0
sg27
I0
sg28
(g9
g257
g258
g259
(dp263
g14
g15
sg16
Nsg17
g9
sg18
Nsg19
g257
sg20
I01
sg21
Nsg22
g23
stp264
sg31
g32
sg33
I0
ssS'doc:images/cells.jpg'
p265
(dp266
g6
(lp267
sg8
(g9
S'images/cells.jpg'
p268
S'.jpg'
p269
S'17f3dd20408bd3b4ba5e9f44861c4b1e-000'
p270
(dp271
g14
g15
sg16
Nsg17
g9
sg18
Nsg19
g268
sg20
I01
sg21
Nsg22
g23
stp272
sg16
S'Cells'
p273
sg26
I0
sg27
I0
sg28
(g9
g268
g269
g270
(dp274
g14
g15
sg16
Nsg17
g9
sg18
Nsg19
g268
sg20
I01
sg21
Nsg22
g23
stp275
sg31
g32
sg33
I0
ssS'doc:js/src/modernizr.js'
p276
(dp277
g6
(lp278
sg8
(g9
S'js/src/modernizr.js'
p279
S'.js'
p280
S'aba5aa2c190c37d212a5d62a8232e2f9-000'
p281
(dp282
g14
g15
sg16
Nsg17
g9
sg18
Nsg19
g279
sg20
I01
sg21
Nsg22
g23
stp283
sg16
S'Modernizr'
p284
sg26
I0
sg27
I0
sg28
(g9
g279
g280
g281
(dp285
g14
g15
sg16
Nsg17
g9
sg18
Nsg19
g279
sg20
I01
sg21
Nsg22
g23
stp286
sg31
g32
sg33
I0
ssS'doc:sass/jdibrief.scss'
p287
(dp288
g6
(lp289
sg8
(g9
S'sass/jdibrief.scss'
p290
S'.scss'
p291
S'd9635047e4db8437fc061335ccfb144f-000'
p292
(dp293
g14
g15
sg16
Nsg17
g9
sg18
Nsg19
g290
sg20
I01
sg21
Nsg22
g23
stp294
sg16
S'Jdibrief'
p295
sg26
I0
sg27
I0
sg28
(g9
g290
g291
g292
(dp296
g14
g15
sg16
Nsg17
g9
sg18
Nsg19
g290
sg20
I01
sg21
Nsg22
g23
stp297
sg31
g32
sg33
I0
ssS'doc:js/lib/underscore-1.min.js'
p298
(dp299
g6
(lp300
sg8
(g9
S'js/lib/underscore-1.min.js'
p301
S'.js'
p302
S'd52c8e754c1dced2f46d7416ed13b9f0-000'
p303
(dp304
g14
g15
sg16
Nsg17
g9
sg18
Nsg19
g301
sg20
I01
sg21
Nsg22
g23
stp305
sg16
S'Underscore 1.Min'
p306
sg26
I0
sg27
I0
sg28
(g9
g301
g302
g303
(dp307
g14
g15
sg16
Nsg17
g9
sg18
Nsg19
g301
sg20
I01
sg21
Nsg22
g23
stp308
sg31
g32
sg33
I0
ssS'doc:js/lib/underscore-1.6.0.min.js'
p309
(dp310
g6
(lp311
sg8
(g9
S'js/lib/underscore-1.6.0.min.js'
p312
S'.js'
p313
S'1a640d643bb08b3e965074252e8db317-000'
p314
(dp315
g14
g15
sg16
Nsg17
g9
sg18
Nsg19
g312
sg20
I01
sg21
Nsg22
g23
stp316
sg16
S'Underscore 1.6.0.Min'
p317
sg26
I0
sg27
I0
sg28
(g9
g312
g313
g314
(dp318
g14
g15
sg16
Nsg17
g9
sg18
Nsg19
g312
sg20
I01
sg21
Nsg22
g23
stp319
sg31
g32
sg33
I0
ssS'doc:sass/screen.scss'
p320
(dp321
g6
(lp322
sg8
(g9
S'sass/screen.scss'
p323
S'.scss'
p324
S'cd7337a3bb0094b8ae9e1a2ba0bb7473-000'
p325
(dp326
g14
g15
sg16
Nsg17
g9
sg18
Nsg19
g323
sg20
I01
sg21
Nsg22
g23
stp327
sg16
S'Screen'
p328
sg26
I0
sg27
I0
sg28
(g9
g323
g324
g325
(dp329
g14
g15
sg16
Nsg17
g9
sg18
Nsg19
g323
sg20
I01
sg21
Nsg22
g23
stp330
sg31
g32
sg33
I0
ssS'doc:js/lib/respond.min.js'
p331
(dp332
g6
(lp333
sg8
(g9
S'js/lib/respond.min.js'
p334
S'.js'
p335
S'54916d921b70fad9a1d6080df09ee94c-000'
p336
(dp337
g14
g15
sg16
Nsg17
g9
sg18
Nsg19
g334
sg20
I01
sg21
Nsg22
g23
stp338
sg16
S'Respond.Min'
p339
sg26
I0
sg27
I0
sg28
(g9
g334
g335
g336
(dp340
g14
g15
sg16
Nsg17
g9
sg18
Nsg19
g334
sg20
I01
sg21
Nsg22
g23
stp341
sg31
g32
sg33
I0
ssS'doc:sass/daylab.scss'
p342
(dp343
g6
(lp344
sg8
(g9
S'sass/daylab.scss'
p345
S'.scss'
p346
S'8177491c41b31a4273865ec64d74cd67-000'
p347
(dp348
g14
g15
sg16
Nsg17
g9
sg18
Nsg19
g345
sg20
I01
sg21
Nsg22
g23
stp349
sg16
S'Daylab'
p350
sg26
I0
sg27
I0
sg28
(g9
g345
g346
g347
(dp351
g14
g15
sg16
Nsg17
g9
sg18
Nsg19
g345
sg20
I01
sg21
Nsg22
g23
stp352
sg31
g32
sg33
I0
ssS'doc:images/respond.proxy.gif'
p353
(dp354
g6
(lp355
sg8
(g9
S'images/respond.proxy.gif'
p356
S'.gif'
p357
S'824c3d72d5ca77a1147be1a37b50b152-000'
p358
(dp359
g14
g15
sg16
Nsg17
g9
sg18
Nsg19
g356
sg20
I01
sg21
Nsg22
g23
stp360
sg16
S'Respond.Proxy'
p361
sg26
I0
sg27
I0
sg28
(g9
g356
g357
g358
(dp362
g14
g15
sg16
Nsg17
g9
sg18
Nsg19
g356
sg20
I01
sg21
Nsg22
g23
stp363
sg31
g32
sg33
I0
ssS'doc:js/lib/modernizr.min.js'
p364
(dp365
g6
(lp366
sg8
(g9
S'js/lib/modernizr.min.js'
p367
S'.js'
p368
S'28d40452abd5627c1558fd3a965b7993-000'
p369
(dp370
g14
g15
sg16
Nsg17
g9
sg18
Nsg19
g367
sg20
I01
sg21
Nsg22
g23
stp371
sg16
S'Modernizr.Min'
p372
sg26
I0
sg27
I0
sg28
(g9
g367
g368
g369
(dp373
g14
g15
sg16
Nsg17
g9
sg18
Nsg19
g367
sg20
I01
sg21
Nsg22
g23
stp374
sg31
g32
sg33
I0
ssS'doc:sass/partials/_elements.scss'
p375
(dp376
g6
(lp377
sg8
(g9
S'sass/partials/_elements.scss'
p378
S'.scss'
p379
S'602a754e6e92a8ee8e6fbfd5f2868ece-000'
p380
(dp381
g14
g15
sg16
Nsg17
g9
sg18
Nsg19
g378
sg20
I01
sg21
Nsg22
g23
stp382
sg16
S' Elements'
p383
sg26
I0
sg27
I0
sg28
(g9
g378
g379
g380
(dp384
g14
g15
sg16
Nsg17
g9
sg18
Nsg19
g378
sg20
I01
sg21
Nsg22
g23
stp385
sg31
g32
sg33
I0
ssS'doc:js/ResponsiveSlides.js'
p386
(dp387
g6
(lp388
sg8
(g9
S'js/ResponsiveSlides.js'
p389
S'.js'
p390
S'd23f887a6e87d0a2876a973681b158f1-000'
p391
(dp392
g14
g15
sg16
Nsg17
g9
sg18
Nsg19
g389
sg20
I01
sg21
Nsg22
g23
stp393
sg16
S'Responsive Slides'
p394
sg26
I0
sg27
I0
sg28
(g9
g389
g390
g391
(dp395
g14
g15
sg16
Nsg17
g9
sg18
Nsg19
g389
sg20
I01
sg21
Nsg22
g23
stp396
sg31
g32
sg33
I0
ssS'doc:js/lib/fastclick.min.js'
p397
(dp398
g6
(lp399
sg8
(g9
S'js/lib/fastclick.min.js'
p400
S'.js'
p401
S'9d7934d99094df69d3088724f1856c10-000'
p402
(dp403
g14
g15
sg16
Nsg17
g9
sg18
Nsg19
g400
sg20
I01
sg21
Nsg22
g23
stp404
sg16
S'Fastclick.Min'
p405
sg26
I0
sg27
I0
sg28
(g9
g400
g401
g402
(dp406
g14
g15
sg16
Nsg17
g9
sg18
Nsg19
g400
sg20
I01
sg21
Nsg22
g23
stp407
sg31
g32
sg33
I0
ssS'doc:sass/partials/_forms.scss'
p408
(dp409
g6
(lp410
sg8
(g9
S'sass/partials/_forms.scss'
p411
S'.scss'
p412
S'52118a27cb68cad70e9288692845789f-000'
p413
(dp414
g14
g15
sg16
Nsg17
g9
sg18
Nsg19
g411
sg20
I01
sg21
Nsg22
g23
stp415
sg16
S' Forms'
p416
sg26
I0
sg27
I0
sg28
(g9
g411
g412
g413
(dp417
g14
g15
sg16
Nsg17
g9
sg18
Nsg19
g411
sg20
I01
sg21
Nsg22
g23
stp418
sg31
g32
sg33
I0
ssS'doc:js/lib/jquery-2.1.1.min.js'
p419
(dp420
g6
(lp421
sg8
(g9
S'js/lib/jquery-2.1.1.min.js'
p422
S'.js'
p423
S'c0187d9834df2d048f6a10dff92469f5-000'
p424
(dp425
g14
g15
sg16
Nsg17
g9
sg18
Nsg19
g422
sg20
I01
sg21
Nsg22
g23
stp426
sg16
S'Jquery 2.1.1.Min'
p427
sg26
I0
sg27
I0
sg28
(g9
g422
g423
g424
(dp428
g14
g15
sg16
Nsg17
g9
sg18
Nsg19
g422
sg20
I01
sg21
Nsg22
g23
stp429
sg31
g32
sg33
I0
ssS'doc:css/yoursite.css'
p430
(dp431
g6
(lp432
sg8
(g9
S'css/yoursite.css'
p433
S'.css'
p434
S'2a09ac62d6e8f9b77f92ca2e2b242f7e-000'
p435
(dp436
g14
g15
sg16
Nsg17
g9
sg18
Nsg19
g433
sg20
I01
sg21
Nsg22
g23
stp437
sg16
S'Yoursite'
p438
sg26
I0
sg27
I0
sg28
(g9
g433
g434
g435
(dp439
g14
g15
sg16
Nsg17
g9
sg18
Nsg19
g433
sg20
I01
sg21
Nsg22
g23
stp440
sg31
g32
sg33
I0
ssS'doc:sass/partials/_reset.scss'
p441
(dp442
g6
(lp443
sg8
(g9
S'sass/partials/_reset.scss'
p444
S'.scss'
p445
S'11cfab197bf1951e24aff44b8d0e5260-000'
p446
(dp447
g14
g15
sg16
Nsg17
g9
sg18
Nsg19
g444
sg20
I01
sg21
Nsg22
g23
stp448
sg16
S' Reset'
p449
sg26
I0
sg27
I0
sg28
(g9
g444
g445
g446
(dp450
g14
g15
sg16
Nsg17
g9
sg18
Nsg19
g444
sg20
I01
sg21
Nsg22
g23
stp451
sg31
g32
sg33
I0
ssS'doc:js/lib/html5shiv-printshiv.min.js'
p452
(dp453
g6
(lp454
sg8
(g9
S'js/lib/html5shiv-printshiv.min.js'
p455
S'.js'
p456
S'5b0b9962215148cedff8e618df355249-000'
p457
(dp458
g14
g15
sg16
Nsg17
g9
sg18
Nsg19
g455
sg20
I01
sg21
Nsg22
g23
stp459
sg16
S'Html5shiv Printshiv.Min'
p460
sg26
I0
sg27
I0
sg28
(g9
g455
g456
g457
(dp461
g14
g15
sg16
Nsg17
g9
sg18
Nsg19
g455
sg20
I01
sg21
Nsg22
g23
stp462
sg31
g32
sg33
I0
ssS'doc:js/src/all-site/googleAnalytics.js'
p463
(dp464
g6
(lp465
sg8
(g9
S'js/src/all-site/googleAnalytics.js'
p466
S'.js'
p467
S'074acccb654df1de0515adb3a30b90a4-000'
p468
(dp469
g14
g15
sg16
Nsg17
g9
sg18
Nsg19
g466
sg20
I01
sg21
Nsg22
g23
stp470
sg16
S'Google Analytics'
p471
sg26
I0
sg27
I0
sg28
(g9
g466
g467
g468
(dp472
g14
g15
sg16
Nsg17
g9
sg18
Nsg19
g466
sg20
I01
sg21
Nsg22
g23
stp473
sg31
g32
sg33
I0
ssS'doc:js/main.js'
p474
(dp475
g6
(lp476
sg8
(g9
S'js/main.js'
p477
S'.js'
p478
S'77ab163850ef0fa98d6a9ee9fb6bbcaf-000'
p479
(dp480
g14
g15
sg16
Nsg17
g9
sg18
Nsg19
g477
sg20
I01
sg21
Nsg22
g23
stp481
sg16
S'Main'
p482
sg26
I0
sg27
I0
sg28
(g9
g477
g478
g479
(dp483
g14
g15
sg16
Nsg17
g9
sg18
Nsg19
g477
sg20
I01
sg21
Nsg22
g23
stp484
sg31
g32
sg33
I0
ssS'doc:js/lib/gridset-overlay.min.js'
p485
(dp486
g6
(lp487
sg8
(g9
S'js/lib/gridset-overlay.min.js'
p488
S'.js'
p489
S'02d252b80a839299e6fc26af8f57cad2-000'
p490
(dp491
g14
g15
sg16
Nsg17
g9
sg18
Nsg19
g488
sg20
I01
sg21
Nsg22
g23
stp492
sg16
S'Gridset Overlay.Min'
p493
sg26
I0
sg27
I0
sg28
(g9
g488
g489
g490
(dp494
g14
g15
sg16
Nsg17
g9
sg18
Nsg19
g488
sg20
I01
sg21
Nsg22
g23
stp495
sg31
g32
sg33
I0
ssS'doc:css/designlang.min.css'
p496
(dp497
g6
(lp498
sg8
(g9
S'css/designlang.min.css'
p499
S'.css'
p500
S'369e860c8e08a882d12fee6c0368b931-000'
p501
(dp502
g14
g15
sg16
Nsg17
g9
sg18
Nsg19
g499
sg20
I01
sg21
Nsg22
g23
stp503
sg16
S'Designlang.Min'
p504
sg26
I0
sg27
I0
sg28
(g9
g499
g500
g501
(dp505
g14
g15
sg16
Nsg17
g9
sg18
Nsg19
g499
sg20
I01
sg21
Nsg22
g23
stp506
sg31
g32
sg33
I0
ssS'doc:js/src/backbone-1.1.2.js'
p507
(dp508
g6
(lp509
sg8
(g9
S'js/src/backbone-1.1.2.js'
p510
S'.js'
p511
S'c5fe39f6c54016c075df23b38a6d305a-000'
p512
(dp513
g14
g15
sg16
Nsg17
g9
sg18
Nsg19
g510
sg20
I01
sg21
Nsg22
g23
stp514
sg16
S'Backbone 1.1.2'
p515
sg26
I0
sg27
I0
sg28
(g9
g510
g511
g512
(dp516
g14
g15
sg16
Nsg17
g9
sg18
Nsg19
g510
sg20
I01
sg21
Nsg22
g23
stp517
sg31
g32
sg33
I0
ssS'doc:favicon-152.png'
p518
(dp519
g6
(lp520
sg8
(g9
S'favicon-152.png'
p521
S'.png'
p522
S'84c62ebeebc5a66bf9ae5170f98a183c-000'
p523
(dp524
g14
g15
sg16
Nsg17
g9
sg18
Nsg19
g521
sg20
I01
sg21
Nsg22
g23
stp525
sg16
S'Favicon 152'
p526
sg26
I0
sg27
I0
sg28
(g9
g521
g522
g523
(dp527
g14
g15
sg16
Nsg17
g9
sg18
Nsg19
g521
sg20
I01
sg21
Nsg22
g23
stp528
sg31
g32
sg33
I0
ssS'doc:css/screen.min.css'
p529
(dp530
g6
(lp531
sg8
(g9
S'css/screen.min.css'
p532
S'.css'
p533
S'a74db87591967a5a07b7840719b47842-000'
p534
(dp535
g14
g15
sg16
Nsg17
g9
sg18
Nsg19
g532
sg20
I01
sg21
Nsg22
g23
stp536
sg16
S'Screen.Min'
p537
sg26
I0
sg27
I0
sg28
(g9
g532
g533
g534
(dp538
g14
g15
sg16
Nsg17
g9
sg18
Nsg19
g532
sg20
I01
sg21
Nsg22
g23
stp539
sg31
g32
sg33
I0
ssS'doc:images/mob-nav.png'
p540
(dp541
g6
(lp542
sg8
(g9
S'images/mob-nav.png'
p543
S'.png'
p544
S'5361926db686002c20d6ca36360aa7c2-000'
p545
(dp546
g14
g15
sg16
Nsg17
g9
sg18
Nsg19
g543
sg20
I01
sg21
Nsg22
g23
stp547
sg16
S'Mob Nav'
p548
sg26
I0
sg27
I0
sg28
(g9
g543
g544
g545
(dp549
g14
g15
sg16
Nsg17
g9
sg18
Nsg19
g543
sg20
I01
sg21
Nsg22
g23
stp550
sg31
g32
sg33
I0
ssS'doc:js/app/general.js'
p551
(dp552
g6
(lp553
sg8
(g9
S'js/app/general.js'
p554
S'.js'
p555
S'a08fe50c883d5e1c1feaa4a36fd6b020-000'
p556
(dp557
g14
g15
sg16
Nsg17
g9
sg18
Nsg19
g554
sg20
I01
sg21
Nsg22
g23
stp558
sg16
S'General'
p559
sg26
I0
sg27
I0
sg28
(g9
g554
g555
g556
(dp560
g14
g15
sg16
Nsg17
g9
sg18
Nsg19
g554
sg20
I01
sg21
Nsg22
g23
stp561
sg31
g32
sg33
I0
ssS'doc:css/daylab.min.css'
p562
(dp563
g6
(lp564
sg8
(g9
S'css/daylab.min.css'
p565
S'.css'
p566
S'c880456c3ed15b7517f4752cff022f07-000'
p567
(dp568
g14
g15
sg16
Nsg17
g9
sg18
Nsg19
g565
sg20
I01
sg21
Nsg22
g23
stp569
sg16
S'Daylab.Min'
p570
sg26
I0
sg27
I0
sg28
(g9
g565
g566
g567
(dp571
g14
g15
sg16
Nsg17
g9
sg18
Nsg19
g565
sg20
I01
sg21
Nsg22
g23
stp572
sg31
g32
sg33
I0
ssS'doc:js/lib/respond.proxy.min.js'
p573
(dp574
g6
(lp575
sg8
(g9
S'js/lib/respond.proxy.min.js'
p576
S'.js'
p577
S'8c60822d30d5c6284b6e434bd281c872-000'
p578
(dp579
g14
g15
sg16
Nsg17
g9
sg18
Nsg19
g576
sg20
I01
sg21
Nsg22
g23
stp580
sg16
S'Respond.Proxy.Min'
p581
sg26
I0
sg27
I0
sg28
(g9
g576
g577
g578
(dp582
g14
g15
sg16
Nsg17
g9
sg18
Nsg19
g576
sg20
I01
sg21
Nsg22
g23
stp583
sg31
g32
sg33
I0
ssS'doc:sass/partials/_carousel.scss'
p584
(dp585
g6
(lp586
sg8
(g9
S'sass/partials/_carousel.scss'
p587
S'.scss'
p588
S'74cf06609e61cff6e7cdc68e9e3877b8-000'
p589
(dp590
g14
g15
sg16
Nsg17
g9
sg18
Nsg19
g587
sg20
I01
sg21
Nsg22
g23
stp591
sg16
S' Carousel'
p592
sg26
I0
sg27
I0
sg28
(g9
g587
g588
g589
(dp593
g14
g15
sg16
Nsg17
g9
sg18
Nsg19
g587
sg20
I01
sg21
Nsg22
g23
stp594
sg31
g32
sg33
I0
ssS'doc:js/src/require.js'
p595
(dp596
g6
(lp597
sg8
(g9
S'js/src/require.js'
p598
S'.js'
p599
S'9dfa60e403a0d8eb6fd9027fd4a124b4-000'
p600
(dp601
g14
g15
sg16
Nsg17
g9
sg18
Nsg19
g598
sg20
I01
sg21
Nsg22
g23
stp602
sg16
S'Require'
p603
sg26
I0
sg27
I0
sg28
(g9
g598
g599
g600
(dp604
g14
g15
sg16
Nsg17
g9
sg18
Nsg19
g598
sg20
I01
sg21
Nsg22
g23
stp605
sg31
g32
sg33
I0
ssS'doc:js/lib/modernizr-custom.js'
p606
(dp607
g6
(lp608
sg8
(g9
S'js/lib/modernizr-custom.js'
p609
S'.js'
p610
S'a11d859acccb0994faf28f6e29bc247d-000'
p611
(dp612
g14
g15
sg16
Nsg17
g9
sg18
Nsg19
g609
sg20
I01
sg21
Nsg22
g23
stp613
sg16
S'Modernizr Custom'
p614
sg26
I0
sg27
I0
sg28
(g9
g609
g610
g611
(dp615
g14
g15
sg16
Nsg17
g9
sg18
Nsg19
g609
sg20
I01
sg21
Nsg22
g23
stp616
sg31
g32
sg33
I0
ssS'doc:_README.md|yamlargs|jinja|pandoc|h'
p617
(dp618
g6
(lp619
(g37
S'_README.md|yamlargs'
p620
S'.md'
p621
S'a05a0b991a71d8cff324f023e867da5a-001-yamlargs'
p622
(dp623
g14
g15
sg16
Nsg17
g9
sg18
Nsg19
S'_README.md'
p624
sg20
Nsg21
Nsg22
g23
stp625
a(g37
S'_README.md|yamlargs|jinja'
p626
g621
S'a05a0b991a71d8cff324f023e867da5a-002-yamlargs-jinja'
p627
(dp628
g14
g15
sg16
Nsg17
g9
sg18
Nsg19
S'_README.md'
p629
sg20
I01
sg21
Nsg22
g23
stp630
a(g37
S'_README.md|yamlargs|jinja|pandoc'
p631
g76
S'a05a0b991a71d8cff324f023e867da5a-003-yamlargs-jinja-pandoc'
p632
(dp633
g14
g15
sg16
Nsg17
g9
sg18
Nsg19
S'_README.html'
p634
sg20
I01
sg21
Nsg22
g23
stp635
a(g37
S'_README.md|yamlargs|jinja|pandoc|h'
p636
g82
S'a05a0b991a71d8cff324f023e867da5a-004-yamlargs-jinja-pandoc-h'
p637
(dp638
g14
g15
sg16
Nsg17
g9
sg18
Nsg19
S'_README.html'
p639
sg20
I01
sg21
Nsg22
g23
stp640
asg8
(g37
g636
g82
g637
(dp641
g14
g15
sg16
Nsg17
g9
sg18
Nsg19
g639
sg20
I01
sg21
Nsg22
g23
stp642
sg16
S' Readme'
p643
sg26
I0
sg27
I0
sg28
(g9
S'_README.md'
p644
g621
S'a05a0b991a71d8cff324f023e867da5a-000'
p645
(dp646
g14
g15
sg16
Nsg17
g9
sg18
Nsg19
g644
sg20
Nsg21
Nsg22
g23
stp647
sg31
g32
sg33
I0
ssS'doc:images/close.png'
p648
(dp649
g6
(lp650
sg8
(g9
S'images/close.png'
p651
S'.png'
p652
S'e072238cfa33540369d62b4c46897bca-000'
p653
(dp654
g14
g15
sg16
Nsg17
g9
sg18
Nsg19
g651
sg20
I01
sg21
Nsg22
g23
stp655
sg16
S'Close'
p656
sg26
I0
sg27
I0
sg28
(g9
g651
g652
g653
(dp657
g14
g15
sg16
Nsg17
g9
sg18
Nsg19
g651
sg20
I01
sg21
Nsg22
g23
stp658
sg31
g32
sg33
I0
ssS'doc:images/favicon.ico'
p659
(dp660
g6
(lp661
sg8
(g9
S'images/favicon.ico'
p662
S'.ico'
p663
S'157ffbd2160ce5903b1e076621b6e204-000'
p664
(dp665
g14
g15
sg16
Nsg17
g9
sg18
Nsg19
g662
sg20
I01
sg21
Nsg22
g23
stp666
sg16
S'Favicon'
p667
sg26
I0
sg27
I0
sg28
(g9
g662
g663
g664
(dp668
g14
g15
sg16
Nsg17
g9
sg18
Nsg19
g662
sg20
I01
sg21
Nsg22
g23
stp669
sg31
g32
sg33
I0
ssS'doc:js/src/gridset-overlay.js'
p670
(dp671
g6
(lp672
sg8
(g9
S'js/src/gridset-overlay.js'
p673
S'.js'
p674
S'90473fe0b23c6631ff6a438d007689b6-000'
p675
(dp676
g14
g15
sg16
Nsg17
g9
sg18
Nsg19
g673
sg20
I01
sg21
Nsg22
g23
stp677
sg16
S'Gridset Overlay'
p678
sg26
I0
sg27
I0
sg28
(g9
g673
g674
g675
(dp679
g14
g15
sg16
Nsg17
g9
sg18
Nsg19
g673
sg20
I01
sg21
Nsg22
g23
stp680
sg31
g32
sg33
I0
ssS'doc:sass/venue.scss'
p681
(dp682
g6
(lp683
sg8
(g9
S'sass/venue.scss'
p684
S'.scss'
p685
S'395c6c5153c57a5279e48255670ff83b-000'
p686
(dp687
g14
g15
sg16
Nsg17
g9
sg18
Nsg19
g684
sg20
I01
sg21
Nsg22
g23
stp688
sg16
S'Venue'
p689
sg26
I0
sg27
I0
sg28
(g9
g684
g685
g686
(dp690
g14
g15
sg16
Nsg17
g9
sg18
Nsg19
g684
sg20
I01
sg21
Nsg22
g23
stp691
sg31
g32
sg33
I0
ssS'doc:css/print.min.css'
p692
(dp693
g6
(lp694
sg8
(g9
S'css/print.min.css'
p695
S'.css'
p696
S'b82d5486a9b46ab3c87d8bcdf1ecbc4e-000'
p697
(dp698
g14
g15
sg16
Nsg17
g9
sg18
Nsg19
g695
sg20
I01
sg21
Nsg22
g23
stp699
sg16
S'Print.Min'
p700
sg26
I0
sg27
I0
sg28
(g9
g695
g696
g697
(dp701
g14
g15
sg16
Nsg17
g9
sg18
Nsg19
g695
sg20
I01
sg21
Nsg22
g23
stp702
sg31
g32
sg33
I0
ssS'doc:js/lib/all-site.min.js'
p703
(dp704
g6
(lp705
sg8
(g9
S'js/lib/all-site.min.js'
p706
S'.js'
p707
S'7a49f4cda7f29c966af67b4b93107f6e-000'
p708
(dp709
g14
g15
sg16
Nsg17
g9
sg18
Nsg19
g706
sg20
I01
sg21
Nsg22
g23
stp710
sg16
S'All Site.Min'
p711
sg26
I0
sg27
I0
sg28
(g9
g706
g707
g708
(dp712
g14
g15
sg16
Nsg17
g9
sg18
Nsg19
g706
sg20
I01
sg21
Nsg22
g23
stp713
sg31
g32
sg33
I0
ssS'doc:sass/print.scss'
p714
(dp715
g6
(lp716
sg8
(g9
S'sass/print.scss'
p717
S'.scss'
p718
S'ab9021596d51a63c2f3ee10e8950192e-000'
p719
(dp720
g14
g15
sg16
Nsg17
g9
sg18
Nsg19
g717
sg20
I01
sg21
Nsg22
g23
stp721
sg16
S'Print'
p722
sg26
I0
sg27
I0
sg28
(g9
g717
g718
g719
(dp723
g14
g15
sg16
Nsg17
g9
sg18
Nsg19
g717
sg20
I01
sg21
Nsg22
g23
stp724
sg31
g32
sg33
I0
ssS'doc:js/src/all-site/ucl.js'
p725
(dp726
g6
(lp727
sg8
(g9
S'js/src/all-site/ucl.js'
p728
S'.js'
p729
S'1646ba4501d4f8a7b19002f77ead20a1-000'
p730
(dp731
g14
g15
sg16
Nsg17
g9
sg18
Nsg19
g728
sg20
I01
sg21
Nsg22
g23
stp732
sg16
S'Ucl'
p733
sg26
I0
sg27
I0
sg28
(g9
g728
g729
g730
(dp734
g14
g15
sg16
Nsg17
g9
sg18
Nsg19
g728
sg20
I01
sg21
Nsg22
g23
stp735
sg31
g32
sg33
I0
ssS'doc:images/ucl-logo.svg'
p736
(dp737
g6
(lp738
sg8
(g9
S'images/ucl-logo.svg'
p739
S'.svg'
p740
S'117c344e09d4956c128bedb0042f9b6a-000'
p741
(dp742
g14
g15
sg16
Nsg17
g9
sg18
Nsg19
g739
sg20
I01
sg21
Nsg22
g23
stp743
sg16
S'Ucl Logo'
p744
sg26
I0
sg27
I0
sg28
(g9
g739
g740
g741
(dp745
g14
g15
sg16
Nsg17
g9
sg18
Nsg19
g739
sg20
I01
sg21
Nsg22
g23
stp746
sg31
g32
sg33
I0
ssS'doc:sass/ie.scss'
p747
(dp748
g6
(lp749
sg8
(g9
S'sass/ie.scss'
p750
S'.scss'
p751
S'398b1ddf052d748dfb30d507ac4b1828-000'
p752
(dp753
g14
g15
sg16
Nsg17
g9
sg18
Nsg19
g750
sg20
I01
sg21
Nsg22
g23
stp754
sg16
S'Ie'
p755
sg26
I0
sg27
I0
sg28
(g9
g750
g751
g752
(dp756
g14
g15
sg16
Nsg17
g9
sg18
Nsg19
g750
sg20
I01
sg21
Nsg22
g23
stp757
sg31
g32
sg33
I0
ssS'doc:sass/designlang.scss'
p758
(dp759
g6
(lp760
sg8
(g9
S'sass/designlang.scss'
p761
S'.scss'
p762
S'a08e985798f01d085cbf290c75fd14d2-000'
p763
(dp764
g14
g15
sg16
Nsg17
g9
sg18
Nsg19
g761
sg20
I01
sg21
Nsg22
g23
stp765
sg16
S'Designlang'
p766
sg26
I0
sg27
I0
sg28
(g9
g761
g762
g763
(dp767
g14
g15
sg16
Nsg17
g9
sg18
Nsg19
g761
sg20
I01
sg21
Nsg22
g23
stp768
sg31
g32
sg33
I0
ssS'doc:images/ucl-portico.jpg'
p769
(dp770
g6
(lp771
sg8
(g9
S'images/ucl-portico.jpg'
p772
S'.jpg'
p773
S'b60536b4d72927aa98497daba1349fd4-000'
p774
(dp775
g14
g15
sg16
Nsg17
g9
sg18
Nsg19
g772
sg20
I01
sg21
Nsg22
g23
stp776
sg16
S'Ucl Portico'
p777
sg26
I0
sg27
I0
sg28
(g9
g772
g773
g774
(dp778
g14
g15
sg16
Nsg17
g9
sg18
Nsg19
g772
sg20
I01
sg21
Nsg22
g23
stp779
sg31
g32
sg33
I0
ssS'doc:js/src/jquery-2.1.1.js'
p780
(dp781
g6
(lp782
sg8
(g9
S'js/src/jquery-2.1.1.js'
p783
S'.js'
p784
S'a48364c9ba5b2c25656ece470e16a9ad-000'
p785
(dp786
g14
g15
sg16
Nsg17
g9
sg18
Nsg19
g783
sg20
I01
sg21
Nsg22
g23
stp787
sg16
S'Jquery 2.1.1'
p788
sg26
I0
sg27
I0
sg28
(g9
g783
g784
g785
(dp789
g14
g15
sg16
Nsg17
g9
sg18
Nsg19
g783
sg20
I01
sg21
Nsg22
g23
stp790
sg31
g32
sg33
I0
ssS'doc:js/src/html5shiv-printshiv.js'
p791
(dp792
g6
(lp793
sg8
(g9
S'js/src/html5shiv-printshiv.js'
p794
S'.js'
p795
S'84f7b4d2c8ae83e4f7f033e2d15a9b19-000'
p796
(dp797
g14
g15
sg16
Nsg17
g9
sg18
Nsg19
g794
sg20
I01
sg21
Nsg22
g23
stp798
sg16
S'Html5shiv Printshiv'
p799
sg26
I0
sg27
I0
sg28
(g9
g794
g795
g796
(dp800
g14
g15
sg16
Nsg17
g9
sg18
Nsg19
g794
sg20
I01
sg21
Nsg22
g23
stp801
sg31
g32
sg33
I0
ssS'doc:js/src/underscore-1.6.0.js'
p802
(dp803
g6
(lp804
sg8
(g9
S'js/src/underscore-1.6.0.js'
p805
S'.js'
p806
S'e26d816b4c64fcbe1b2f140c2ee38b58-000'
p807
(dp808
g14
g15
sg16
Nsg17
g9
sg18
Nsg19
g805
sg20
I01
sg21
Nsg22
g23
stp809
sg16
S'Underscore 1.6.0'
p810
sg26
I0
sg27
I0
sg28
(g9
g805
g806
g807
(dp811
g14
g15
sg16
Nsg17
g9
sg18
Nsg19
g805
sg20
I01
sg21
Nsg22
g23
stp812
sg31
g32
sg33
I0
ssS'doc:js/src/respond.proxy.js'
p813
(dp814
g6
(lp815
sg8
(g9
S'js/src/respond.proxy.js'
p816
S'.js'
p817
S'ca6bc7b76e47818335b69aeac715d1cc-000'
p818
(dp819
g14
g15
sg16
Nsg17
g9
sg18
Nsg19
g816
sg20
I01
sg21
Nsg22
g23
stp820
sg16
S'Respond.Proxy'
p821
sg26
I0
sg27
I0
sg28
(g9
g816
g817
g818
(dp822
g14
g15
sg16
Nsg17
g9
sg18
Nsg19
g816
sg20
I01
sg21
Nsg22
g23
stp823
sg31
g32
sg33
I0
ssS'doc:js/src/all-site/gridset-overlay.js'
p824
(dp825
g6
(lp826
sg8
(g9
S'js/src/all-site/gridset-overlay.js'
p827
S'.js'
p828
S'e6ac1dd8ec85885c740bfd33c4742e28-000'
p829
(dp830
g14
g15
sg16
Nsg17
g9
sg18
Nsg19
g827
sg20
I01
sg21
Nsg22
g23
stp831
sg16
S'Gridset Overlay'
p832
sg26
I0
sg27
I0
sg28
(g9
g827
g828
g829
(dp833
g14
g15
sg16
Nsg17
g9
sg18
Nsg19
g827
sg20
I01
sg21
Nsg22
g23
stp834
sg31
g32
sg33
I0
ssS'doc:css/jdibrief.min.css'
p835
(dp836
g6
(lp837
sg8
(g9
S'css/jdibrief.min.css'
p838
S'.css'
p839
S'749cdf36a57632437894056cfae5aeff-000'
p840
(dp841
g14
g15
sg16
Nsg17
g9
sg18
Nsg19
g838
sg20
I01
sg21
Nsg22
g23
stp842
sg16
S'Jdibrief.Min'
p843
sg26
I0
sg27
I0
sg28
(g9
g838
g839
g840
(dp844
g14
g15
sg16
Nsg17
g9
sg18
Nsg19
g838
sg20
I01
sg21
Nsg22
g23
stp845
sg31
g32
sg33
I0
ssS'doc:sass/partials/_colors.scss'
p846
(dp847
g6
(lp848
sg8
(g9
S'sass/partials/_colors.scss'
p849
S'.scss'
p850
S'80015c6b943058bdc08363e77a9e7a98-000'
p851
(dp852
g14
g15
sg16
Nsg17
g9
sg18
Nsg19
g849
sg20
I01
sg21
Nsg22
g23
stp853
sg16
S' Colors'
p854
sg26
I0
sg27
I0
sg28
(g9
g849
g850
g851
(dp855
g14
g15
sg16
Nsg17
g9
sg18
Nsg19
g849
sg20
I01
sg21
Nsg22
g23
stp856
sg31
g32
sg33
I0
ssS'doc:css/ie.min.css'
p857
(dp858
g6
(lp859
sg8
(g9
S'css/ie.min.css'
p860
S'.css'
p861
S'84347edea820f2531df9a060a75988bb-000'
p862
(dp863
g14
g15
sg16
Nsg17
g9
sg18
Nsg19
g860
sg20
I01
sg21
Nsg22
g23
stp864
sg16
S'Ie.Min'
p865
sg26
I0
sg27
I0
sg28
(g9
g860
g861
g862
(dp866
g14
g15
sg16
Nsg17
g9
sg18
Nsg19
g860
sg20
I01
sg21
Nsg22
g23
stp867
sg31
g32
sg33
I0
ssS'doc:favicon-144.png'
p868
(dp869
g6
(lp870
sg8
(g9
S'favicon-144.png'
p871
S'.png'
p872
S'52e890938525b00b27f330423509b608-000'
p873
(dp874
g14
g15
sg16
Nsg17
g9
sg18
Nsg19
g871
sg20
I01
sg21
Nsg22
g23
stp875
sg16
S'Favicon 144'
p876
sg26
I0
sg27
I0
sg28
(g9
g871
g872
g873
(dp877
g14
g15
sg16
Nsg17
g9
sg18
Nsg19
g871
sg20
I01
sg21
Nsg22
g23
stp878
sg31
g32
sg33
I0
ssS'doc:sass/partials/_search.scss'
p879
(dp880
g6
(lp881
sg8
(g9
S'sass/partials/_search.scss'
p882
S'.scss'
p883
S'cd6b12aa976ef19fc30fce90394326a4-000'
p884
(dp885
g14
g15
sg16
Nsg17
g9
sg18
Nsg19
g882
sg20
I01
sg21
Nsg22
g23
stp886
sg16
S' Search'
p887
sg26
I0
sg27
I0
sg28
(g9
g882
g883
g884
(dp888
g14
g15
sg16
Nsg17
g9
sg18
Nsg19
g882
sg20
I01
sg21
Nsg22
g23
stp889
sg31
g32
sg33
I0
ssS'doc:js/src/fastclick.js'
p890
(dp891
g6
(lp892
sg8
(g9
S'js/src/fastclick.js'
p893
S'.js'
p894
S'c723c8b8354b16b6a6a8965125726be7-000'
p895
(dp896
g14
g15
sg16
Nsg17
g9
sg18
Nsg19
g893
sg20
I01
sg21
Nsg22
g23
stp897
sg16
S'Fastclick'
p898
sg26
I0
sg27
I0
sg28
(g9
g893
g894
g895
(dp899
g14
g15
sg16
Nsg17
g9
sg18
Nsg19
g893
sg20
I01
sg21
Nsg22
g23
stp900
sg31
g32
sg33
I0
ssS'doc:sass/partials/_blog.scss'
p901
(dp902
g6
(lp903
sg8
(g9
S'sass/partials/_blog.scss'
p904
S'.scss'
p905
S'98696aa73faa753adab490aea8837a7d-000'
p906
(dp907
g14
g15
sg16
Nsg17
g9
sg18
Nsg19
g904
sg20
I01
sg21
Nsg22
g23
stp908
sg16
S' Blog'
p909
sg26
I0
sg27
I0
sg28
(g9
g904
g905
g906
(dp910
g14
g15
sg16
Nsg17
g9
sg18
Nsg19
g904
sg20
I01
sg21
Nsg22
g23
stp911
sg31
g32
sg33
I0
ssS'doc:js/src/all-site.js'
p912
(dp913
g6
(lp914
sg8
(g9
S'js/src/all-site.js'
p915
S'.js'
p916
S'262398dbae71151ce30e6becf834b4dc-000'
p917
(dp918
g14
g15
sg16
Nsg17
g9
sg18
Nsg19
g915
sg20
I01
sg21
Nsg22
g23
stp919
sg16
S'All Site'
p920
sg26
I0
sg27
I0
sg28
(g9
g915
g916
g917
(dp921
g14
g15
sg16
Nsg17
g9
sg18
Nsg19
g915
sg20
I01
sg21
Nsg22
g23
stp922
sg31
g32
sg33
I0
ssS'doc:sass/mixins/_media-query.scss'
p923
(dp924
g6
(lp925
sg8
(g9
S'sass/mixins/_media-query.scss'
p926
S'.scss'
p927
S'bc206a60b39b273f60ba72dc83e9f25f-000'
p928
(dp929
g14
g15
sg16
Nsg17
g9
sg18
Nsg19
g926
sg20
I01
sg21
Nsg22
g23
stp930
sg16
S' Media Query'
p931
sg26
I0
sg27
I0
sg28
(g9
g926
g927
g928
(dp932
g14
g15
sg16
Nsg17
g9
sg18
Nsg19
g926
sg20
I01
sg21
Nsg22
g23
stp933
sg31
g32
sg33
I0
sssS'filters_used'
p934
(lp935
S'yamlargs'
p936
aS'jinja'
p937
aS'pandoc'
p938
aS'h'
aS'yamlargs'
p939
aS'jinja'
p940
aS'pandoc'
p941
aS'h'
aS'yamlargs'
p942
aS'jinja'
p943
aS'pandoc'
p944
aS'h'
ag936
ag937
ag938
aS'h'
ag939
ag940
ag941
aS'h'
ag942
ag943
ag944
aS'h'
asS'uuid'
p945
S'c8c5184d-02da-4463-942a-9ceee1343ac6'
p946
sS'doc_keys'
p947
(dp948
g490
S'doc:js/lib/gridset-overlay.min.js'
p949
sg12
S'doc:js/lib/backbone-1.min.js'
p950
sg259
S'doc:sass/partials/_layout.scss'
p951
sg446
S'doc:sass/partials/_reset.scss'
p952
sg752
S'doc:sass/ie.scss'
p953
sg675
S'doc:js/src/gridset-overlay.js'
p954
sg523
S'doc:favicon-152.png'
p955
sg402
S'doc:js/lib/fastclick.min.js'
p956
sg347
S'doc:sass/daylab.scss'
p957
sg637
S'doc:_README.md|yamlargs|jinja|pandoc|h'
p958
sg556
S'doc:js/app/general.js'
p959
sg840
S'doc:css/jdibrief.min.css'
p960
sg873
S'doc:favicon-144.png'
p961
sg380
S'doc:sass/partials/_elements.scss'
p962
sg785
S'doc:js/src/jquery-2.1.1.js'
p963
sg270
S'doc:images/cells.jpg'
p964
sg796
S'doc:js/src/html5shiv-printshiv.js'
p965
sg215
S'doc:favicon.ico'
p966
sg512
S'doc:js/src/backbone-1.1.2.js'
p967
sg182
S'doc:js/lib/jquery-1.7.1.min.js'
p968
sg686
S'doc:sass/venue.scss'
p969
sg369
S'doc:js/lib/modernizr.min.js'
p970
sg160
S'doc:js/lib/require.min.js'
p971
sg719
S'doc:sass/print.scss'
p972
sg697
S'doc:css/print.min.css'
p973
sg171
S'doc:sass/partials/_gridset.scss'
p974
sg281
S'doc:js/src/modernizr.js'
p975
sg895
S'doc:js/src/fastclick.js'
p976
sg358
S'doc:images/respond.proxy.gif'
p977
sg730
S'doc:js/src/all-site/ucl.js'
p978
sg303
S'doc:js/lib/underscore-1.min.js'
p979
sg884
S'doc:sass/partials/_search.scss'
p980
sg917
S'doc:js/src/all-site.js'
p981
sg928
S'doc:sass/mixins/_media-query.scss'
p982
sg435
S'doc:css/yoursite.css'
p983
sg534
S'doc:css/screen.min.css'
p984
sg664
S'doc:images/favicon.ico'
p985
sg829
S'doc:js/src/all-site/gridset-overlay.js'
p986
sg708
S'doc:js/lib/all-site.min.js'
p987
sg741
S'doc:images/ucl-logo.svg'
p988
sg589
S'doc:sass/partials/_carousel.scss'
p989
sg145
S'doc:index.md|yamlargs|jinja|pandoc|h'
p990
sg818
S'doc:js/src/respond.proxy.js'
p991
sg237
S'doc:js/src/respond.js'
p992
sg468
S'doc:js/src/all-site/googleAnalytics.js'
p993
sg98
S'doc:sass/partials/_typography.scss'
p994
sg292
S'doc:sass/jdibrief.scss'
p995
sg545
S'doc:images/mob-nav.png'
p996
sg391
S'doc:js/ResponsiveSlides.js'
p997
sg567
S'doc:css/daylab.min.css'
p998
sg851
S'doc:sass/partials/_colors.scss'
p999
sg336
S'doc:js/lib/respond.min.js'
p1000
sg600
S'doc:js/src/require.js'
p1001
sg248
S'doc:js/lib/backbone-1.1.2.min.js'
p1002
sg193
S'doc:images/ucl-logo.png'
p1003
sg501
S'doc:css/designlang.min.css'
p1004
sg314
S'doc:js/lib/underscore-1.6.0.min.js'
p1005
sg479
S'doc:js/main.js'
p1006
sg906
S'doc:sass/partials/_blog.scss'
p1007
sg226
S'doc:css/venue.min.css'
p1008
sg204
S'doc:sass/partials/_globalmasthead.scss'
p1009
sg807
S'doc:js/src/underscore-1.6.0.js'
p1010
sg578
S'doc:js/lib/respond.proxy.min.js'
p1011
sg862
S'doc:css/ie.min.css'
p1012
sg653
S'doc:images/close.png'
p1013
sg774
S'doc:images/ucl-portico.jpg'
p1014
sg83
S'doc:subfolder/index.md|yamlargs|jinja|pandoc|h'
p1015
sg611
S'doc:js/lib/modernizr-custom.js'
p1016
sg457
S'doc:js/lib/html5shiv-printshiv.min.js'
p1017
sg325
S'doc:sass/screen.scss'
p1018
sg424
S'doc:js/lib/jquery-2.1.1.min.js'
p1019
sg413
S'doc:sass/partials/_forms.scss'
p1020
sg763
S'doc:sass/designlang.scss'
p1021
ss.