(dp1
S'additional-docs'
p2
(lp3
sS'runtime-args'
p4
(dp5
S'findfast'
p6
(dp7
S'links'
p8
(lp9
(dp10
S'text'
p11
S'training 2'
p12
sS'link'
p13
S'http://development.rc.ucl.ac.uk/training'
p14
sasS'title'
p15
S'Quick Links in page'
p16
ssS'crumbs'
p17
(dp18
S'content'
p19
(lp20
(dp21
S'text'
p22
S'RITS'
p23
sS'link'
p24
S'research-it-services'
p25
sa(dp26
S'text'
p27
S'RITS'
p28
sS'link'
p29
S'research-it-services'
p30
sassS'title'
p31
S'Another page'
p32
ss.